(dp0
I0
c__builtin__
set
p1
((lp2
I2240
aI1537
aI258
aI2445
aI1037
aI1680
aI1266
aI1427
aI2261
aI1176
aI1177
aI1178
aI669
aI671
atp3
Rp4
sI1
g1
((lp5
I1282
aI1283
aI1284
aI1285
aI1286
aI1287
aI1288
aI1289
aI1290
aI1291
atp6
Rp7
sI2
g1
((lp8
I1292
aI1293
aI1294
aI1295
aI1296
aI1297
aI1298
aI1299
aI1300
aI1301
aI1302
aI1303
aI1304
atp9
Rp10
sI3
g1
((lp11
I644
aI279
aI1685
aI1686
aI1687
aI953
aI538
aI539
aI540
aI255
atp12
Rp13
sI4
g1
((lp14
I1538
aI1099
aI1100
aI1101
aI1102
aI1104
aI1105
aI1106
aI1107
aI1108
aI1109
atp15
Rp16
sI5
g1
((lp17
I323
aI1390
aI701
aI1395
aI334
aI1429
aI310
aI692
aI317
atp18
Rp19
sI6
g1
((lp20
I1824
aI1513
aI932
aI1831
atp21
Rp22
sI7
g1
((lp23
I2465
aI2461
aI593
atp24
Rp25
sI8
g1
((lp26
I2436
atp27
Rp28
sI9
g1
((lp29
I1928
aI1930
aI1935
atp30
Rp31
sI10
g1
((lp32
I1280
aI2440
aI1268
aI1270
aI1271
aI1272
aI1273
aI1274
aI1275
aI1276
aI1277
aI1278
aI1279
atp33
Rp34
sI11
g1
((lp35
I1333
aI782
atp36
Rp37
sI12
g1
((lp38
I833
aI2335
atp39
Rp40
sI13
g1
((lp41
I386
aI1667
aI1035
aI431
aI2507
aI1183
aI2466
aI1443
aI2473
aI174
aI1199
aI1457
aI1460
aI1589
aI1846
aI999
aI1466
aI2508
aI2506
aI574
aI575
aI576
aI195
aI2504
aI2502
aI2503
aI712
aI713
aI714
aI715
aI716
aI717
aI1591
aI2259
aI1111
aI1112
aI1113
aI1115
aI2400
aI2401
aI2402
aI2403
aI2404
aI2405
aI2406
aI2407
aI2409
aI2410
aI2411
aI2505
aI2158
aI1146
atp42
Rp43
sI14
g1
((lp44
I732
aI1511
atp45
Rp46
sI15
g1
((lp47
I824
aI785
aI1371
aI1836
aI2334
atp48
Rp49
sI16
g1
((lp50
I257
aI261
aI486
aI487
aI490
aI491
aI492
aI493
aI495
aI496
aI497
aI274
aI499
aI293
atp51
Rp52
sI17
g1
((lp53
I516
aI517
aI518
aI519
aI520
aI521
aI522
aI523
aI524
aI525
aI526
atp54
Rp55
sI18
g1
((lp56
I1009
aI620
aI621
aI622
aI623
aI624
aI625
aI627
aI628
aI629
aI630
aI631
atp57
Rp58
sI19
g1
((lp59
I512
aI513
aI514
aI515
aI324
aI332
aI502
aI503
aI505
aI506
aI507
aI508
aI509
aI511
atp60
Rp61
sI20
g1
((lp62
I228
aI229
aI230
aI231
aI232
aI1991
aI2451
aI1615
aI1616
aI2033
aI2034
aI2035
atp63
Rp64
sI21
g1
((lp65
I228
aI229
aI230
aI231
aI232
aI2451
aI1615
aI1616
aI2033
aI2034
aI2035
atp66
Rp67
sI22
g1
((lp68
I262
aI1132
aI501
aI910
atp69
Rp70
sI23
g1
((lp71
I755
aI69
atp72
Rp73
sI24
g1
((lp74
I992
aI1886
atp75
Rp76
sI25
g1
((lp77
I455
aI463
atp78
Rp79
sI26
g1
((lp80
I928
aI2146
atp81
Rp82
sI27
g1
((lp83
I930
aI1763
aI107
aI2482
aI1975
aI2263
atp84
Rp85
sI28
g1
((lp86
I813
aI726
atp87
Rp88
sI29
g1
((lp89
I1756
aI1220
aI813
aI726
aI2309
atp90
Rp91
sI30
g1
((lp92
I808
aI1482
aI942
atp93
Rp94
sI31
g1
((lp95
I1026
aI1155
aI1156
aI1029
aI1030
aI1031
aI1032
aI1027
aI1028
aI939
aI1842
aI1207
aI1208
aI1209
aI1210
aI1211
aI1212
aI1213
aI1214
aI1215
aI1090
aI2130
aI1376
aI1377
aI1378
aI1379
aI1380
aI1381
aI1382
aI1383
aI1384
aI1385
aI2154
aI1387
aI1388
aI1386
atp96
Rp97
sI32
g1
((lp98
I1648
aI1915
aI1916
aI1917
atp99
Rp100
sI33
g1
((lp101
I1008
aI1122
aI1019
aI1316
aI1014
aI1062
aI1023
aI1352
aI1065
aI1034
aI1004
aI1069
aI1071
aI1040
aI1011
aI1044
aI1525
aI1110
aI1119
aI1086
aI1077
atp102
Rp103
sI34
g1
((lp104
I480
aI1567
atp105
Rp106
sI35
g1
((lp107
I1504
aI1512
aI2209
atp108
Rp109
sI36
g1
((lp110
I2202
atp111
Rp112
sI37
g1
((lp113
I1024
aI416
aI662
aI414
aI2453
aI1942
aI670
aI415
atp114
Rp115
sI38
g1
((lp116
I416
aI662
aI414
aI2453
aI1942
aI670
aI415
atp117
Rp118
sI39
g1
((lp119
I1410
aI835
aI1700
aI1895
aI72
aI1769
aI618
aI1639
aI333
aI2020
aI790
aI100
aI189
atp120
Rp121
sI40
g1
((lp122
I826
aI388
atp123
Rp124
sI41
g1
((lp125
I1891
aI1898
aI1582
aI817
aI306
aI1587
aI1940
aI1941
aI1175
aI1369
aI1340
aI1373
atp126
Rp127
sI42
g1
((lp128
I1891
aI1898
aI306
aI1940
aI1941
aI1369
aI1340
aI1373
atp129
Rp130
sI43
g1
((lp131
I1144
atp132
Rp133
sI44
g1
((lp134
I1530
aI220
aI850
atp135
Rp136
sI45
g1
((lp137
I1955
aI2380
atp138
Rp139
sI46
g1
((lp140
I1529
aI2371
aI2372
atp141
Rp142
sI47
g1
((lp143
I32
aI51
atp144
Rp145
sI48
g1
((lp146
I2137
aI857
atp147
Rp148
sI49
g1
((lp149
I25
aI1393
atp150
Rp151
sI50
g1
((lp152
I1737
aI1327
atp153
Rp154
sI51
g1
((lp155
I754
aI1543
atp156
Rp157
sI52
g1
((lp158
I456
aI1969
atp159
Rp160
sI53
g1
((lp161
I2512
aI846
atp162
Rp163
sI54
g1
((lp164
I411
aI1197
atp165
Rp166
sI55
g1
((lp167
I823
atp168
Rp169
sI56
g1
((lp170
I449
aI1734
aI1832
aI2163
aI1812
aI922
aI957
aI1150
atp171
Rp172
sI57
g1
((lp173
I1136
aI646
atp174
Rp175
sI58
g1
((lp176
I1832
aI2163
atp177
Rp178
sI59
g1
((lp179
I603
aI2062
atp180
Rp181
sI60
g1
((lp182
I1678
aI791
atp183
Rp184
sI61
g1
((lp185
I616
aI676
atp186
Rp187
sI62
g1
((lp188
I2021
aI2022
aI2023
aI2024
aI2025
aI2026
aI2027
aI2028
aI2029
aI2030
atp189
Rp190
sI63
g1
((lp191
I2048
aI2049
aI2050
aI2051
aI2052
aI2053
aI2054
aI2055
aI2056
aI2057
aI2058
atp192
Rp193
sI64
g1
((lp194
I2080
aI2081
aI2082
aI2083
aI2084
aI2085
aI2086
aI2087
aI2088
aI2077
aI2078
aI2079
atp195
Rp196
sI65
g1
((lp197
I943
aI944
aI945
aI947
aI948
aI725
aI950
aI951
aI989
aI949
atp198
Rp199
sI66
g1
((lp200
I2337
aI2340
aI1255
aI2344
aI1257
aI2346
aI2348
aI1256
aI1458
aI2332
aI2333
aI1246
aI1247
atp201
Rp202
sI67
g1
((lp203
I1472
aI1473
aI1474
aI1475
aI1476
aI1477
aI1478
aI1479
aI1480
aI1481
aI1612
aI1078
aI1470
aI1471
atp204
Rp205
sI68
g1
((lp206
I2248
aI2036
aI2037
aI2038
aI2039
aI2040
aI2041
aI2042
aI2043
aI2044
aI2045
aI2046
atp207
Rp208
sI69
g1
((lp209
I2075
aI2065
aI2066
aI2067
aI2068
aI2070
aI2071
aI2072
aI2073
aI2074
aI1787
atp210
Rp211
sI70
g1
((lp212
I288
aI280
aI281
aI282
aI283
aI284
aI285
aI286
aI287
atp213
Rp214
sI71
g1
((lp215
I1223
aI1224
aI1225
aI1226
aI1227
aI1228
aI1229
aI1230
aI1231
aI1232
aI1233
aI2325
atp216
Rp217
sI72
g1
((lp218
I328
aI1789
aI2238
atp219
Rp220
sI73
g1
((lp221
I2226
aI77
atp222
Rp223
sI74
g1
((lp224
I1908
aI914
aI924
aI1197
aI1705
atp225
Rp226
sI75
g1
((lp227
I2480
aI105
aI843
atp228
Rp229
sI76
g1
((lp230
I250
aI1483
atp231
Rp232
sI77
g1
((lp233
I2316
aI2285
aI2318
aI2319
aI1074
aI2317
atp234
Rp235
sI78
g1
((lp236
I2160
aI2161
aI2162
aI2014
atp237
Rp238
sI79
g1
((lp239
I1794
aI1397
atp240
Rp241
sI80
g1
((lp242
I2368
aI2370
aI1794
aI1661
aI1397
aI2365
aI2366
aI2367
atp243
Rp244
sI81
g1
((lp245
I128
aI1771
aI1556
atp246
Rp247
sI82
g1
((lp248
I1730
aI1698
atp249
Rp250
sI83
g1
((lp251
I504
aI811
aI1965
aI2011
aI1813
atp252
Rp253
sI84
g1
((lp254
I1858
aI101
aI1454
aI688
aI2099
aI1142
aI955
aI765
atp255
Rp256
sI85
g1
((lp257
I1654
aI404
aI405
aI406
atp258
Rp259
sI86
g1
((lp260
I584
aI872
atp261
Rp262
sI87
g1
((lp263
I1963
aI1783
atp264
Rp265
sI88
g1
((lp266
I607
aI2487
atp267
Rp268
sI89
g1
((lp269
I384
atp270
Rp271
sI90
g1
((lp272
I384
atp273
Rp274
sI91
g1
((lp275
I2314
aI1903
atp276
Rp277
sI92
g1
((lp278
I1998
aI1782
atp279
Rp280
sI93
g1
((lp281
I1281
atp282
Rp283
sI94
g1
((lp284
I202
aI203
atp285
Rp286
sI95
g1
((lp287
I1433
aI1426
aI2251
aI709
atp288
Rp289
sI96
g1
((lp290
I447
atp291
Rp292
sI97
g1
((lp293
I2153
aI20
aI14
aI2214
atp294
Rp295
sI98
g1
((lp296
I484
atp297
Rp298
sI99
g1
((lp299
I556
aI1684
atp300
Rp301
sI100
g1
((lp302
I188
aI254
aI390
aI391
atp303
Rp304
sI101
g1
((lp305
I1083
aI1973
atp306
Rp307
sI102
g1
((lp308
I2392
atp309
Rp310
sI103
g1
((lp311
I954
aI1837
atp312
Rp313
sI104
g1
((lp314
I2230
aI1447
atp315
Rp316
sI105
g1
((lp317
I1042
aI1702
atp318
Rp319
sI106
g1
((lp320
I2152
aI147
atp321
Rp322
sI107
g1
((lp323
I1912
aI1929
aI863
aI2217
atp324
Rp325
sI108
g1
((lp326
I1
aI1970
atp327
Rp328
sI109
g1
((lp329
I266
aI590
atp330
Rp331
sI110
g1
((lp332
I913
aI1319
atp333
Rp334
sI111
g1
((lp335
I985
aI773
atp336
Rp337
sI112
g1
((lp338
I888
aI1320
aI1123
atp339
Rp340
sI113
g1
((lp341
I1149
aI1910
atp342
Rp343
sI114
g1
((lp344
I1202
aI694
atp345
Rp346
sI115
g1
((lp347
I1097
aI1635
atp348
Rp349
sI116
g1
((lp350
I736
aI398
aI1126
atp351
Rp352
sI117
g1
((lp353
I1890
aI357
atp354
Rp355
sI118
g1
((lp356
I708
aI613
atp357
Rp358
sI119
g1
((lp359
I425
atp360
Rp361
sI120
g1
((lp362
I2236
aI844
atp363
Rp364
sI121
g1
((lp365
I2177
aI58
aI372
atp366
Rp367
sI122
g1
((lp368
I648
aI1125
atp369
Rp370
sI123
g1
((lp371
I457
aI1562
atp372
Rp373
sI124
g1
((lp374
I762
aI746
atp375
Rp376
sI125
g1
((lp377
I788
atp378
Rp379
sI126
g1
((lp380
I1445
atp381
Rp382
sI127
g1
((lp383
I136
aI2218
aI2219
aI2220
atp384
Rp385
sI128
g1
((lp386
I2306
aI2310
atp387
Rp388
sI129
g1
((lp389
I166
aI494
aI103
atp390
Rp391
sI130
g1
((lp392
I146
aI2452
aI2189
aI2450
atp393
Rp394
sI131
g1
((lp395
I1351
aI1773
aI2431
atp396
Rp397
sI132
g1
((lp398
I645
aI821
atp399
Rp400
sI133
g1
((lp401
I2208
aI1193
atp402
Rp403
sI134
g1
((lp404
I1421
atp405
Rp406
sI135
g1
((lp407
I995
atp408
Rp409
sI136
g1
((lp410
I1331
aI829
aI2390
atp411
Rp412
sI137
g1
((lp413
I1746
aI1364
atp414
Rp415
sI138
g1
((lp416
I2338
aI963
atp417
Rp418
sI139
g1
((lp419
I2195
aI772
atp420
Rp421
sI140
g1
((lp422
I2098
aI1356
aI1198
atp423
Rp424
sI141
g1
((lp425
I2241
aI2109
atp426
Rp427
sI142
g1
((lp428
I888
aI1123
aI987
aI1320
atp429
Rp430
sI143
g1
((lp431
I1888
atp432
Rp433
sI144
g1
((lp434
I721
aI234
aI1819
atp435
Rp436
sI145
g1
((lp437
I2474
aI197
atp438
Rp439
sI146
g1
((lp440
I1848
aI1640
aI2295
atp441
Rp442
sI147
g1
((lp443
I2181
aI2509
atp444
Rp445
sI148
g1
((lp446
I553
aI2277
atp447
Rp448
sI149
g1
((lp449
I173
aI1415
atp450
Rp451
sI150
g1
((lp452
I605
aI2446
atp453
Rp454
sI151
g1
((lp455
I696
aI303
atp456
Rp457
sI152
g1
((lp458
I886
aI87
atp459
Rp460
sI153
g1
((lp461
I1620
atp462
Rp463
sI154
g1
((lp464
I417
aI1218
aI1725
aI550
aI422
aI1409
aI430
aI1391
aI1619
aI1405
aI1400
aI1565
aI639
atp465
Rp466
sI155
g1
((lp467
I384
aI1846
atp468
Rp469
sI156
g1
((lp470
I1016
aI1596
atp471
Rp472
sI157
g1
((lp473
I2092
aI594
aI601
aI1401
aI602
aI604
aI606
atp474
Rp475
sI158
g1
((lp476
I1808
aI2
atp477
Rp478
sI159
g1
((lp479
I793
aI458
atp480
Rp481
sI160
g1
((lp482
I771
aI1797
aI2321
aI2322
aI793
aI2203
aI1440
aI2467
aI1446
aI241
aI1707
aI1452
aI1072
aI1524
aI969
aI842
aI988
aI1631
aI1504
aI1512
aI1514
aI1515
aI1516
aI1517
aI1520
aI1649
aI242
aI243
aI244
aI1531
aI1533
aI1534
aI1535
atp483
Rp484
sI161
g1
((lp485
I997
aI439
atp486
Rp487
sI162
g1
((lp488
I2467
aI1646
atp489
Rp490
sI163
g1
((lp491
I1504
aI2209
aI1512
aI1514
aI1515
aI1516
aI1517
aI241
aI242
aI243
aI244
aI1269
atp492
Rp493
sI164
g1
((lp494
I458
atp495
Rp496
sI165
g1
((lp497
I1001
aI1441
atp498
Rp499
sI166
g1
((lp500
I1904
aI1346
aI2258
atp501
Rp502
sI167
g1
((lp503
I2140
aI2437
atp504
Rp505
sI168
g1
((lp506
I1904
aI150
atp507
Rp508
sI169
g1
((lp509
I1368
aI187
atp510
Rp511
sI170
g1
((lp512
I743
aI1907
aI2492
aI1357
aI2119
atp513
Rp514
sI171
g1
((lp515
I1418
aI452
atp516
Rp517
sI172
g1
((lp518
I260
atp519
Rp520
sI173
g1
((lp521
I1082
atp522
Rp523
sI174
g1
((lp524
I1803
aI1571
aI1867
atp525
Rp526
sI175
g1
((lp527
I636
aI26
aI2252
aI2253
aI1222
atp528
Rp529
sI176
g1
((lp530
I1681
aI1954
aI55
aI686
aI1951
atp531
Rp532
sI177
g1
((lp533
I1345
aI1674
atp534
Rp535
sI178
g1
((lp536
I2498
aI2211
atp537
Rp538
sI179
g1
((lp539
I2498
aI2211
atp540
Rp541
sI180
g1
((lp542
I936
aI450
aI938
aI2300
aI941
atp543
Rp544
sI181
g1
((lp545
I1076
aI2341
atp546
Rp547
sI182
g1
((lp548
I2296
aI1958
aI2255
atp549
Rp550
sI183
g1
((lp551
I2376
aI1010
aI2291
aI2382
aI2207
atp552
Rp553
sI184
g1
((lp554
I976
aI1737
aI980
aI1561
atp555
Rp556
sI185
g1
((lp557
I1530
aI850
atp558
Rp559
sI186
g1
((lp560
I1792
aI897
aI449
aI918
aI922
aI1958
aI1832
aI1331
aI1337
aI957
aI961
aI1358
aI2255
aI1362
aI90
aI235
aI978
aI829
aI2163
aI2296
aI1914
aI1150
atp561
Rp562
sI187
g1
((lp563
I1114
aI2188
aI637
atp564
Rp565
sI188
g1
((lp566
I387
aI1806
atp567
Rp568
sI189
g1
((lp569
I699
atp570
Rp571
sI190
g1
((lp572
I1344
aI2290
atp573
Rp574
sI191
g1
((lp575
I946
aI419
aI1407
atp576
Rp577
sI192
g1
((lp578
I2324
aI2342
aI2311
atp579
Rp580
sI193
g1
((lp581
I2281
aI238
atp582
Rp583
sI194
g1
((lp584
I1897
atp585
Rp586
sI195
g1
((lp587
I393
aI1948
atp588
Rp589
sI196
g1
((lp590
I719
atp591
Rp592
sI197
g1
((lp593
I1964
aI198
atp594
Rp595
sI198
g1
((lp596
I875
atp597
Rp598
sI199
g1
((lp599
I1349
aI1038
aI1039
atp600
Rp601
sI200
g1
((lp602
I2484
aI2151
atp603
Rp604
sI201
g1
((lp605
I466
aI643
aI916
atp606
Rp607
sI202
g1
((lp608
I1857
aI1526
atp609
Rp610
sI203
g1
((lp611
I384
aI733
atp612
Rp613
sI204
g1
((lp614
I1566
atp615
Rp616
sI205
g1
((lp617
I1092
aI225
aI500
aI1093
atp618
Rp619
sI206
g1
((lp620
I2137
atp621
Rp622
sI207
g1
((lp623
I2186
aI2415
atp624
Rp625
sI208
g1
((lp626
I825
aI1881
atp627
Rp628
sI209
g1
((lp629
I543
aI1934
aI1503
atp630
Rp631
sI210
g1
((lp632
I2120
aI2121
aI2131
aI751
atp633
Rp634
sI211
g1
((lp635
I2369
aI908
aI2006
atp636
Rp637
sI212
g1
((lp638
I1756
aI726
atp639
Rp640
sI213
g1
((lp641
I1050
aI1943
aI802
aI2221
atp642
Rp643
sI214
g1
((lp644
I802
aI1943
atp645
Rp646
sI215
g1
((lp647
I1858
aI646
aI678
aI2480
aI1142
aI924
atp648
Rp649
sI216
g1
((lp650
I2064
aI136
aI2500
atp651
Rp652
sI217
g1
((lp653
I133
aI134
atp654
Rp655
sI218
g1
((lp656
I60
aI341
aI366
atp657
Rp658
sI219
g1
((lp659
I80
aI83
aI380
aI86
aI2063
atp660
Rp661
sI220
g1
((lp662
I2235
aI1822
atp663
Rp664
sI221
g1
((lp665
I1912
aI1605
aI1919
atp666
Rp667
sI222
g1
((lp668
I1491
aI1492
aI1493
aI2399
atp669
Rp670
sI223
g1
((lp671
I268
aI1580
atp672
Rp673
sI224
g1
((lp674
I2129
aI66
aI109
aI165
aI365
atp675
Rp676
sI225
g1
((lp677
I866
aI1539
aI1894
aI828
aI396
aI400
aI177
aI2485
aI2486
aI2231
aI2488
aI412
atp678
Rp679
sI226
g1
((lp680
I1115
aI1460
aI999
atp681
Rp682
sI227
g1
((lp683
I1089
aI1187
aI1188
aI2349
aI1518
aI115
atp684
Rp685
sI228
g1
((lp686
I744
aI748
aI965
aI966
atp687
Rp688
sI229
g1
((lp689
I2304
aI2307
aI2185
aI114
aI854
aI1436
aI2302
atp690
Rp691
sI230
g1
((lp692
I1456
aI747
atp693
Rp694
sI231
g1
((lp695
I1442
aI1987
aI2279
aI1852
aI1079
aI130
aI1103
aI2288
aI186
aI1882
aI271
aI2460
aI1501
aI2047
atp696
Rp697
sI232
g1
((lp698
I348
aI418
aI1931
aI1532
aI277
atp699
Rp700
sI233
g1
((lp701
I1744
aI626
aI1172
atp702
Rp703
sI234
g1
((lp704
I2032
aI2377
aI2266
aI2339
aI2060
atp705
Rp706
sI235
g1
((lp707
I2256
aI2257
aI2244
aI1997
atp708
Rp709
sI236
g1
((lp710
I1261
atp711
Rp712
sI237
g1
((lp713
I82
aI708
aI613
atp714
Rp715
sI238
g1
((lp716
I2211
atp717
Rp718
sI239
g1
((lp719
I2496
aI2171
atp720
Rp721
sI240
g1
((lp722
I2498
atp723
Rp724
sI241
g1
((lp725
I57
aI2239
atp726
Rp727
sI242
g1
((lp728
I104
aI1948
aI2061
atp729
Rp730
sI243
g1
((lp731
I1265
aI5
atp732
Rp733
sI244
g1
((lp734
I104
aI1691
atp735
Rp736
sI245
g1
((lp737
I820
atp738
Rp739
sI246
g1
((lp740
I868
aI711
aI252
aI2191
aI784
aI1586
aI339
aI2264
aI1628
atp741
Rp742
sI247
g1
((lp743
I384
atp744
Rp745
sI248
g1
((lp746
I401
aI2475
atp747
Rp748
sI249
g1
((lp749
I474
aI475
aI615
atp750
Rp751
sI250
g1
((lp752
I1098
aI1918
atp753
Rp754
sI251
g1
((lp755
I473
aI1130
aI651
aI838
atp756
Rp757
sI252
g1
((lp758
I2456
aI1856
atp759
Rp760
sI253
g1
((lp761
I2228
atp762
Rp763
sI254
g1
((lp764
I1832
aI978
aI235
aI922
atp765
Rp766
sI255
g1
((lp767
I0
aI468
aI1134
atp768
Rp769
sI256
g1
((lp770
I1163
aI1933
aI1166
atp771
Rp772
sI257
g1
((lp773
I265
aI1484
aI1693
aI191
atp774
Rp775
sI258
g1
((lp776
I706
aI1557
aI2223
atp777
Rp778
sI259
g1
((lp779
I413
aI706
aI1557
aI2223
atp780
Rp781
sI260
g1
((lp782
I1484
aI1693
atp783
Rp784
sI261
g1
((lp785
I265
aI191
atp786
Rp787
sI262
g1
((lp788
I1821
aI438
atp789
Rp790
sI263
g1
((lp791
I1041
aI204
aI853
aI247
atp792
Rp793
sI264
g1
((lp794
I186
aI1079
aI1852
aI1103
atp795
Rp796
sI265
g1
((lp797
I27
aI1756
aI1691
atp798
Rp799
sI266
g1
((lp800
I432
aI1499
atp801
Rp802
sI267
g1
((lp803
I768
atp804
Rp805
sI268
g1
((lp806
I874
aI2471
atp807
Rp808
sI269
g1
((lp809
I1920
aI1739
aI1740
atp810
Rp811
sI270
g1
((lp812
I1873
aI541
atp813
Rp814
sI271
g1
((lp815
I70
aI62
atp816
Rp817
sI272
g1
((lp818
I860
aI1893
atp819
Rp820
sI273
g1
((lp821
I1500
aI862
atp822
Rp823
sI274
g1
((lp824
I2296
aI918
aI1958
aI2255
atp825
Rp826
sI275
g1
((lp827
I1756
aI1691
aI1220
aI1581
atp828
Rp829
sI276
g1
((lp830
I768
aI577
aI1691
aI1581
aI719
atp831
Rp832
sI277
g1
((lp833
I1964
aI1220
aI1581
aI719
atp834
Rp835
sI278
g1
((lp836
I104
aI768
aI1948
aI719
atp837
Rp838
sI279
g1
((lp839
I578
aI446
atp840
Rp841
sI280
g1
((lp842
I27
aI1220
atp843
Rp844
sI281
g1
((lp845
I1632
aI409
atp846
Rp847
sI282
g1
((lp848
I937
aI2194
aI2069
atp849
Rp850
sI283
g1
((lp851
I2330
atp852
Rp853
sI284
g1
((lp854
I1025
aI1018
aI1012
aI1878
atp855
Rp856
sI285
g1
((lp857
I1976
aI1694
atp858
Rp859
sI286
g1
((lp860
I305
atp861
Rp862
sI287
g1
((lp863
I1689
aI1139
atp864
Rp865
sI288
g1
((lp866
I1633
aI1695
atp867
Rp868
sI289
g1
((lp869
I800
aI1568
aI1962
atp870
Rp871
sI290
g1
((lp872
I1566
aI1679
atp873
Rp874
sI291
g1
((lp875
I770
aI2275
aI1412
aI1925
aI1414
aI841
aI1196
aI1936
aI2227
atp876
Rp877
sI292
g1
((lp878
I2276
aI102
aI1641
aI1450
aI1451
aI1708
aI182
atp879
Rp880
sI293
g1
((lp881
I632
aI1643
atp882
Rp883
sI294
g1
((lp884
I1253
aI1236
aI1174
aI1159
aI2135
aI1165
aI1240
aI1171
aI532
aI1829
aI2454
aI2329
aI1242
aI1051
aI1052
aI1053
aI1054
aI1055
aI1056
aI1057
aI1058
aI1059
aI1060
aI1061
aI1063
aI1064
aI1250
aI554
aI2477
aI2094
aI925
aI2354
aI926
aI2103
aI2104
aI2106
aI927
aI2108
aI2493
aI1985
aI2114
aI1254
aI1990
aI1249
aI1315
aI2123
aI1186
aI718
aI720
aI2514
aI723
aI1179
aI1237
aI1238
aI727
aI728
aI1241
aI2138
aI1243
aI1244
aI1245
aI1239
aI735
aI1248
aI737
aI148
aI739
aI740
aI1251
aI2113
aI1252
aI1258
aI1259
aI722
aI724
aI2297
aI2298
aI2299
aI1310
aI1322
aI738
aI1339
atp885
Rp886
sI295
g1
((lp887
I464
aI1131
aI126
aI190
atp888
Rp889
sI296
g1
((lp890
I2435
aI2214
aI14
aI179
aI20
aI1934
aI1818
aI1308
aI1503
atp891
Rp892
sI297
g1
((lp893
I1424
aI1185
aI675
aI1191
atp894
Rp895
sI298
g1
((lp896
I1185
aI675
aI1191
aI1420
aI1424
aI852
aI469
aI1818
atp897
Rp898
sI299
g1
((lp899
I185
aI619
aI428
aI510
atp900
Rp901
sI300
g1
((lp902
I160
aI161
aI155
aI156
aI1419
aI159
aI157
aI154
aI1431
aI442
aI443
aI444
aI445
aI223
atp903
Rp904
sI301
g1
((lp905
I1696
aI2265
aI1770
aI1201
atp906
Rp907
sI302
g1
((lp908
I1996
atp909
Rp910
sI303
g1
((lp911
I2136
aI1761
atp912
Rp913
sI304
g1
((lp914
I185
aI619
atp915
Rp916
sI305
g1
((lp917
I898
aI909
aI1811
aI1910
aI1913
aI1149
aI1343
atp918
Rp919
sI306
g1
((lp920
I896
aI488
aI489
aI907
aI498
aI371
aI1309
atp921
Rp922
sI307
g1
((lp923
I428
aI510
atp924
Rp925
sI308
g1
((lp926
I1960
aI1164
aI207
atp927
Rp928
sI309
g1
((lp929
I986
aI1087
atp930
Rp931
sI310
g1
((lp932
I2432
aI2464
aI2091
aI752
aI1361
aI690
aI1396
aI666
aI1659
atp933
Rp934
sI311
g1
((lp935
I537
aI977
aI2476
aI2379
aI76
aI141
aI143
aI145
aI1047
aI1305
aI123
atp936
Rp937
sI312
g1
((lp938
I897
aI1331
aI201
atp939
Rp940
sI313
g1
((lp941
I690
aI1828
aI1365
atp942
Rp943
sI314
g1
((lp944
I2432
aI2464
aI2312
aI303
aI752
aI1361
aI690
aI1396
aI1365
aI696
aI666
atp945
Rp946
sI315
g1
((lp947
I1337
aI235
aI961
atp948
Rp949
sI316
g1
((lp950
I1792
aI90
aI1358
aI1914
aI918
atp951
Rp952
sI317
g1
((lp953
I961
aI201
aI978
aI1362
aI1331
aI918
aI152
aI90
atp954
Rp955
sI318
g1
((lp956
I1633
aI635
aI2494
atp957
Rp958
sI319
g1
((lp959
I1956
aI2438
atp960
Rp961
sI320
g1
((lp962
I330
aI611
aI922
aI1958
aI957
atp963
Rp964
sI321
g1
((lp965
I987
atp966
Rp967
sI322
g1
((lp968
I89
aI707
atp969
Rp970
sI323
g1
((lp971
I1080
aI1584
aI1767
atp972
Rp973
sI324
g1
((lp974
I2116
aI2095
atp975
Rp976
sI325
g1
((lp977
I2510
aI2254
atp978
Rp979
sI326
g1
((lp980
I433
aI402
aI1653
aI1783
atp981
Rp982
sI327
g1
((lp983
I1091
aI1675
aI19
aI52
aI2007
aI2008
aI2009
atp984
Rp985
sI328
g1
((lp986
I864
aI734
aI263
atp987
Rp988
sI329
g1
((lp989
I527
aI175
aI28
aI29
aI30
aI31
aI33
aI34
aI35
aI36
aI37
aI38
aI39
aI40
aI41
aI42
aI43
aI44
aI45
aI46
aI47
aI48
aI49
aI2164
aI610
aI612
aI1774
aI1775
aI1776
aI1778
aI1779
aI1780
aI1781
atp990
Rp991
sI330
g1
((lp992
I322
aI2076
aI1826
atp993
Rp994
sI331
g1
((lp995
I322
aI1003
aI2076
aI1826
atp996
Rp997
sI332
g1
((lp998
I457
aI573
aI562
aI563
aI564
aI565
aI566
aI567
aI568
aI569
aI1562
aI571
aI572
aI570
atp999
Rp1000
sI333
g1
((lp1001
I562
aI563
aI564
aI565
aI566
aI567
aI568
aI569
aI570
aI571
aI572
aI573
atp1002
Rp1003
sI334
g1
((lp1004
I2002
atp1005
Rp1006
sI335
g1
((lp1007
I859
aI531
aI1717
aI1015
atp1008
Rp1009
sI336
g1
((lp1010
I970
aI531
aI1683
aI1717
aI990
atp1011
Rp1012
sI337
g1
((lp1013
I1864
aI618
aI1080
aI2323
aI1334
aI695
aI856
aI699
atp1014
Rp1015
sI338
g1
((lp1016
I1972
aI1590
aI2511
atp1017
Rp1018
sI339
g1
((lp1019
I1578
aI1804
aI1575
atp1020
Rp1021
sI340
g1
((lp1022
I1326
aI407
atp1023
Rp1024
sI341
g1
((lp1025
I1336
aI1849
atp1026
Rp1027
sI342
g1
((lp1028
I1664
aI65
aI2089
aI302
aI917
aI1049
aI1887
atp1029
Rp1030
sI343
g1
((lp1031
I1664
aI65
aI2089
aI302
aI917
aI1049
aI1887
atp1032
Rp1033
sI344
g1
((lp1034
I1049
aI302
atp1035
Rp1036
sI345
g1
((lp1037
I65
aI917
aI1887
atp1038
Rp1039
sI346
g1
((lp1040
I929
aI1993
atp1041
Rp1042
sI347
g1
((lp1043
I2139
aI379
aI1853
aI731
atp1044
Rp1045
sI348
g1
((lp1046
I931
aI2470
aI108
aI1548
aI657
aI1814
aI921
aI1438
atp1047
Rp1048
sI349
g1
((lp1049
I1760
aI320
aI170
aI205
aI211
aI1081
aI2170
aI991
atp1050
Rp1051
sI350
g1
((lp1052
I2096
aI2225
aI1658
aI1067
aI2118
atp1053
Rp1054
sI351
g1
((lp1055
I2198
aI1957
aI2134
atp1056
Rp1057
sI352
g1
((lp1058
I1679
atp1059
Rp1060
sI353
g1
((lp1061
I180
aI1989
atp1062
Rp1063
sI354
g1
((lp1064
I2497
aI1540
aI1994
aI1968
aI819
aI730
atp1065
Rp1066
sI355
g1
((lp1067
I560
aI2234
atp1068
Rp1069
sI356
g1
((lp1070
I900
aI1642
aI1636
aI2398
atp1071
Rp1072
sI357
g1
((lp1073
I1432
aI2469
aI894
atp1074
Rp1075
sI358
g1
((lp1076
I275
aI276
atp1077
Rp1078
sI359
g1
((lp1079
I1360
aI2169
aI1988
atp1080
Rp1081
sI360
g1
((lp1082
I1005
atp1083
Rp1084
sI361
g1
((lp1085
I2090
aI934
atp1086
Rp1087
sI362
g1
((lp1088
I704
aI832
aI2499
aI135
atp1089
Rp1090
sI363
g1
((lp1091
I1634
aI655
aI861
aI367
atp1092
Rp1093
sI364
g1
((lp1094
I1417
aI2059
aI1168
aI1823
aI1317
aI1959
aI168
aI1961
aI426
aI2491
aI591
aI592
aI2513
aI210
aI1623
aI2144
aI2280
aI363
aI1644
aI2292
aI378
aI764
atp1095
Rp1096
sI365
g1
((lp1097
I440
aI1926
atp1098
Rp1099
sI366
g1
((lp1100
I1765
aI1094
atp1101
Rp1102
sI367
g1
((lp1103
I384
aI388
atp1104
Rp1105
sI368
g1
((lp1106
I760
aI763
aI2019
aI2111
atp1107
Rp1108
sI369
g1
((lp1109
I3
aI6
aI9
aI12
aI15
aI21
aI23
aI1435
aI1444
aI171
aI50
aI56
aI61
aI962
aI710
aI1121
aI1866
aI1613
aI848
aI184
aI851
aI2260
aI1622
aI2010
aI2012
aI84
aI2000
aI2278
aI2159
aI2003
aI1655
aI2004
atp1110
Rp1111
sI370
g1
((lp1112
I536
aI545
aI614
atp1113
Rp1114
sI371
g1
((lp1115
I2289
aI586
aI395
aI1263
aI1840
aI1809
atp1116
Rp1117
sI372
g1
((lp1118
I1786
aI994
aI2434
aI1830
atp1119
Rp1120
sI373
g1
((lp1121
I1338
aI1235
aI580
atp1122
Rp1123
sI374
g1
((lp1124
I1724
aI766
atp1125
Rp1126
sI375
g1
((lp1127
I1938
aI2242
aI814
aI199
atp1128
Rp1129
sI376
g1
((lp1130
I1416
aI2433
aI1899
aI236
atp1131
Rp1132
sI377
g1
((lp1133
I1952
aI1576
aI1638
aI1919
atp1134
Rp1135
sI378
g1
((lp1136
I1688
aI1937
aI672
aI1607
atp1137
Rp1138
sI379
g1
((lp1139
I1647
aI1437
aI1439
atp1140
Rp1141
sI380
g1
((lp1142
I1162
aI2443
aI654
aI658
aI275
aI276
aI2197
aI2199
aI923
aI2149
aI1953
aI2341
aI806
aI1703
aI818
aI178
aI1076
aI2270
aI183
aI1464
aI1850
aI847
aI919
aI1621
aI855
aI1625
aI1498
aI1402
aI2142
aI479
aI485
aI870
aI807
aI434
aI403
aI805
aI758
aI122
atp1143
Rp1144
sI381
g1
((lp1145
I1169
aI2126
aI2326
atp1146
Rp1147
sI382
g1
((lp1148
I2243
aI2245
aI2215
aI392
aI1677
aI338
aI1718
aI1723
aI1980
aI638
atp1149
Rp1150
sI383
g1
((lp1151
I2243
aI2215
atp1152
Rp1153
sI384
g1
((lp1154
I1723
aI1718
atp1155
Rp1156
sI385
g1
((lp1157
I2142
atp1158
Rp1159
sI386
g1
((lp1160
I805
aI806
aI807
aI403
aI2197
aI2199
aI1464
aI1850
aI1402
atp1161
Rp1162
sI387
g1
((lp1163
I122
aI654
aI2142
aI847
atp1164
Rp1165
sI388
g1
((lp1166
I122
aI654
atp1167
Rp1168
sI389
g1
((lp1169
I1625
aI1076
aI2149
aI919
atp1170
Rp1171
sI390
g1
((lp1172
I1162
aI1703
aI818
aI758
aI485
atp1173
Rp1174
sI391
g1
((lp1175
I1953
aI1621
aI870
aI479
atp1176
Rp1177
sI392
g1
((lp1178
I178
aI847
aI434
aI403
aI919
aI1464
aI1850
atp1179
Rp1180
sI393
g1
((lp1181
I1703
aI1076
aI2142
aI855
aI1498
aI2270
atp1182
Rp1183
sI394
g1
((lp1184
I1162
aI2149
atp1185
Rp1186
sI395
g1
((lp1187
I320
aI1081
aI2170
atp1188
Rp1189
sI396
g1
((lp1190
I2458
aI2455
atp1191
Rp1192
sI397
g1
((lp1193
I1050
aI2221
atp1194
Rp1195
sI398
g1
((lp1196
I1153
aI2308
aI1158
aI1816
aI273
aI1682
aI661
aI663
aI664
aI665
aI667
aI1564
aI1314
aI804
aI1350
aI1068
aI687
aI307
aI1861
aI1862
aI329
aI1354
aI2124
aI290
aI2125
aI465
aI1367
aI477
aI2145
aI1791
aI1148
aI1045
atp1197
Rp1198
sI399
g1
((lp1199
I1724
aI1338
aI1235
aI580
aI766
atp1200
Rp1201
sI400
g1
((lp1202
I552
aI769
aI895
aI901
aI767
atp1203
Rp1204
sI401
g1
((lp1205
I129
aI326
aI1665
aI2345
aI239
aI245
aI215
atp1206
Rp1207
sI402
g1
((lp1208
I1353
aI1692
atp1209
Rp1210
sI403
g1
((lp1211
I1080
aI1584
aI699
aI1767
atp1212
Rp1213
sI404
g1
((lp1214
I1006
atp1215
Rp1216
sI405
g1
((lp1217
I1712
aI982
aI859
aI781
aI958
atp1218
Rp1219
sI406
g1
((lp1220
I2249
aI956
aI369
aI967
atp1221
Rp1222
sI407
g1
((lp1223
I249
aI1521
aI2105
atp1224
Rp1225
sI408
g1
((lp1226
I769
aI901
aI895
atp1227
Rp1228
sI409
g1
((lp1229
I361
aI940
aI933
aI729
atp1230
Rp1231
sI410
g1
((lp1232
I2408
aI761
aI1711
aI1983
atp1233
Rp1234
sI411
g1
((lp1235
I1363
aI589
atp1236
Rp1237
sI412
g1
((lp1238
I1264
aI436
aI1311
atp1239
Rp1240
sI413
g1
((lp1241
I2246
aI1545
aI1194
aI1195
aI2479
aI1490
aI1033
aI2101
aI2313
aI702
atp1242
Rp1243
sI414
g1
((lp1244
I2001
aI1205
atp1245
Rp1246
sI415
g1
((lp1247
I1048
aI1706
aI1731
aI1726
atp1248
Rp1249
sI416
g1
((lp1250
I2284
atp1251
Rp1252
sI417
g1
((lp1253
I2336
aI213
aI206
atp1254
Rp1255
sI418
g1
((lp1256
I1200
aI529
aI1204
aI149
aI1140
aI223
atp1257
Rp1258
sI419
g1
((lp1259
I1657
aI2148
atp1260
Rp1261
sI420
g1
((lp1262
I1992
aI233
aI301
aI753
aI1203
aI1820
aI1982
atp1263
Rp1264
sI421
g1
((lp1265
I2466
aI1846
atp1266
Rp1267
sI422
g1
((lp1268
I194
aI1366
aI2143
atp1269
Rp1270
sI423
g1
((lp1271
I1413
aI1720
aI208
aI1713
aI1714
aI1715
aI212
aI1719
aI1944
aI1716
aI1946
atp1272
Rp1273
sI424
g1
((lp1274
I2018
atp1275
Rp1276
sI425
g1
((lp1277
I2305
aI595
aI1758
atp1278
Rp1279
sI426
g1
((lp1280
I389
aI340
aI1167
aI816
aI827
aI462
aI335
aI596
aI597
aI598
aI599
aI600
aI858
aI352
aI867
aI869
aI871
aI360
aI873
aI362
aI876
aI877
aI878
aI879
aI880
aI881
aI882
aI883
aI884
aI885
aI887
aI889
aI890
aI891
aI892
aI383
atp1281
Rp1282
sI427
g1
((lp1283
I2017
aI1485
atp1284
Rp1285
sI428
g1
((lp1286
I389
aI340
aI1167
aI816
aI827
aI462
aI335
aI596
aI597
aI598
aI599
aI600
aI352
aI867
aI869
aI871
aI360
aI873
aI362
aI876
aI877
aI878
aI879
aI880
aI881
aI882
aI883
aI884
aI885
aI887
aI889
aI890
aI891
aI892
aI383
atp1287
Rp1288
sI429
g1
((lp1289
I1449
aI221
aI1981
atp1290
Rp1291
sI430
g1
((lp1292
I995
aI227
atp1293
Rp1294
sI431
g1
((lp1295
I2201
aI1549
atp1296
Rp1297
sI432
g1
((lp1298
I781
aI685
aI531
aI677
aI679
aI680
aI681
aI682
aI683
aI684
aI1453
aI1712
aI956
aI958
aI967
aI2249
aI970
aI849
aI982
aI859
aI990
aI617
aI369
aI1683
aI1015
atp1299
Rp1300
sI433
g1
((lp1301
I345
aI1827
aI1949
atp1302
Rp1303
sI434
g1
((lp1304
I2216
aI121
aI1170
aI459
atp1305
Rp1306
sI435
g1
((lp1307
I1736
aI1668
aI1124
aI454
atp1308
Rp1309
sI436
g1
((lp1310
I2464
aI2432
aI1828
aI647
aI2312
aI2091
aI303
aI752
aI1361
aI690
aI1396
aI1365
aI696
aI666
aI1659
aI2237
atp1311
Rp1312
sI437
g1
((lp1313
I2144
aI378
aI210
aI363
aI426
atp1314
Rp1315
sI438
g1
((lp1316
I2385
aI2229
aI1950
aI471
atp1317
Rp1318
sI439
g1
((lp1319
I2237
aI647
atp1320
Rp1321
sI440
g1
((lp1322
I2464
aI1361
aI666
aI2432
atp1323
Rp1324
sI441
g1
((lp1325
I1673
aI218
aI534
aI2127
atp1326
Rp1327
sI442
g1
((lp1328
I1553
aI1939
aI1505
atp1329
Rp1330
sI443
g1
((lp1331
I1509
aI1510
aI423
aI809
aI810
aI427
aI2286
aI1267
aI1262
aI1883
aI1884
aI1885
aI2110
atp1332
Rp1333
sI444
g1
((lp1334
I1601
aI1509
aI1510
aI423
aI809
aI810
aI427
aI2286
aI2481
aI1267
aI820
aI2478
aI1262
aI408
aI1883
aI1884
aI1885
aI2110
atp1335
Rp1336
sI445
g1
((lp1337
I53
aI1095
aI831
aI253
aI1551
atp1338
Rp1339
sI446
g1
((lp1340
I921
aI1438
aI1814
aI2470
atp1341
Rp1342
sI447
g1
((lp1343
I70
aI1599
atp1344
Rp1345
sI448
g1
((lp1346
I875
aI381
aI1598
aI893
atp1347
Rp1348
sI449
g1
((lp1349
I609
aI1002
aI1017
aI1127
atp1350
Rp1351
sI450
g1
((lp1352
I1602
aI167
atp1353
Rp1354
sI451
g1
((lp1355
I2168
aI537
aI1047
atp1356
Rp1357
sI452
g1
((lp1358
I1312
aI482
aI421
aI460
aI1133
aI2222
aI1135
aI368
aI535
aI1528
aI1434
aI2459
aI2462
atp1359
Rp1360
sI453
g1
((lp1361
I803
aI1798
aI1164
aI207
aI559
aI1788
atp1362
Rp1363
sI454
g1
((lp1364
I1088
aI64
aI649
aI1676
aI910
aI787
aI2196
aI551
aI1448
aI71
aI437
aI1721
aI1728
aI321
aI1863
aI2381
aI1487
aI1751
aI993
aI113
aI2283
aI1260
aI749
aI1137
aI1394
aI756
aI118
aI2424
aI1428
atp1365
Rp1366
sI455
g1
((lp1367
I1671
aI1672
aI1462
aI1465
aI1467
aI1468
atp1368
Rp1369
sI456
g1
((lp1370
I834
aI837
aI840
aI79
aI81
aI1404
atp1371
Rp1372
sI457
g1
((lp1373
I59
aI1671
aI1672
aI1462
aI1465
aI1467
aI1468
atp1374
Rp1375
sI458
g1
((lp1376
I834
aI837
aI840
aI79
aI81
aI59
aI1404
atp1377
Rp1378
sI459
g1
((lp1379
I448
aI132
aI7
aI106
aI237
aI142
aI16
aI117
aI24
aI124
atp1380
Rp1381
sI460
g1
((lp1382
I448
aI1154
aI164
aI132
aI7
aI138
aI13
aI142
aI237
aI16
aI88
aI106
aI117
aI22
aI1399
aI24
aI4
aI111
aI124
aI10
aI158
atp1383
Rp1384
sI461
g1
((lp1385
I164
atp1386
Rp1387
sI462
g1
((lp1388
I1154
aI138
atp1389
Rp1390
sI463
g1
((lp1391
I10
aI4
aI22
aI158
aI13
atp1392
Rp1393
sI464
g1
((lp1394
I88
aI4
aI158
aI1399
atp1395
Rp1396
sI465
g1
((lp1397
I16
aI24
aI237
aI7
atp1398
Rp1399
sI466
g1
((lp1400
I1639
aI100
aI333
aI1895
atp1401
Rp1402
sI467
g1
((lp1403
I88
aI117
aI111
atp1404
Rp1405
sI468
g1
((lp1406
I1392
atp1407
Rp1408
sI469
g1
((lp1409
I2132
aI93
aI478
atp1410
Rp1411
sI470
g1
((lp1412
I1697
aI99
atp1413
Rp1414
sI471
g1
((lp1415
I1370
aI2287
atp1416
Rp1417
sI472
g1
((lp1418
I2466
aI1667
aI2158
aI1589
aI1846
aI1146
atp1419
Rp1420
sI473
g1
((lp1421
I386
aI2259
aI195
aI1591
atp1422
Rp1423
sI474
g1
((lp1424
I1035
aI1443
aI2473
aI431
aI2504
aI713
aI2508
aI2506
aI574
aI575
aI576
aI2507
aI2502
aI2503
aI712
aI2505
aI714
aI715
aI716
aI717
aI1111
aI1112
aI1113
atp1425
Rp1426
sI475
g1
((lp1427
I2176
aI299
aI1675
aI902
aI775
aI776
aI777
aI778
aI779
aI780
aI2353
aI270
aI2008
aI2383
aI19
aI1173
aI2247
aI2352
aI774
aI935
aI1704
aI2347
aI2350
aI2351
aI2224
aI1329
aI2355
aI2356
aI2357
aI2358
aI905
aI2360
aI52
aI2362
aI906
aI2495
aI1091
aI903
aI2374
aI2375
aI904
aI331
aI1871
aI2384
aI1617
aI979
aI2005
aI2361
aI267
aI2009
aI1627
aI915
aI996
aI1630
aI1892
aI289
aI1007
aI1651
aI1652
aI2007
aI2429
aI2430
atp1428
Rp1429
sI476
g1
((lp1430
I797
aI798
aI799
atp1431
Rp1432
sI477
g1
((lp1433
I1872
aI420
atp1434
Rp1435
sI478
g1
((lp1436
I1986
aI196
aI1835
aI1506
aI2414
aI2233
aI1592
aI2425
aI2426
aI2363
aI1662
atp1437
Rp1438
sI479
g1
((lp1439
I129
aI326
aI1665
aI2345
aI239
aI245
aI215
atp1440
Rp1441
sI480
g1
((lp1442
I794
aI795
aI796
atp1443
Rp1444
sI481
g1
((lp1445
I946
aI419
aI1341
aI1407
atp1446
Rp1447
sI482
g1
((lp1448
I1666
aI1160
aI2441
aI269
aI272
aI1043
aI278
aI2467
aI292
aI294
aI295
aI296
aI297
aI298
aI300
aI1073
aI181
aI1609
aI2386
aI91
aI92
aI1629
aI94
aI95
aI96
aI97
aI98
aI1645
aI1646
aI119
aI1147
aI1660
atp1449
Rp1450
sI483
g1
((lp1451
I264
aI256
aI1459
aI110
aI1502
atp1452
Rp1453
sI484
g1
((lp1454
I425
atp1455
Rp1456
sI485
g1
((lp1457
I425
atp1458
Rp1459
sI486
g1
((lp1460
I1013
aI1359
atp1461
Rp1462
sI487
g1
((lp1463
I1597
aI542
atp1464
Rp1465
sI488
g1
((lp1466
I642
aI899
aI2180
aI2182
aI2183
aI8
aI1801
aI394
aI2190
aI2193
aI1497
aI2200
aI2463
aI291
aI1572
aI1967
aI2097
aI2102
aI1469
aI1217
aI2115
aI1348
aI2117
aI85
aI1494
aI1496
aI217
aI1117
aI745
aI1777
atp1467
Rp1468
sI489
g1
((lp1469
I786
aI2212
aI741
aI934
aI2213
atp1470
Rp1471
sI490
g1
((lp1472
I1560
aI555
aI1558
aI1559
atp1473
Rp1474
sI491
g1
((lp1475
I325
aI2439
aI1359
aI2448
aI1013
aI2015
atp1476
Rp1477
sI492
g1
((lp1478
I144
aI1999
atp1479
Rp1480
sI493
g1
((lp1481
I1764
aI1189
aI1542
aI839
aI1519
aI656
aI1656
aI1753
aI1190
aI703
atp1482
Rp1483
sI494
g1
((lp1484
I1328
aI1403
atp1485
Rp1486
sI495
g1
((lp1487
I1129
aI2133
aI2150
atp1488
Rp1489
sI496
g1
((lp1490
I1522
aI2107
aI650
aI54
aI63
atp1491
Rp1492
sI497
g1
((lp1493
I304
aI1762
aI315
aI308
atp1494
Rp1495
sI498
g1
((lp1496
I1670
aI1663
atp1497
Rp1498
sI499
g1
((lp1499
I1184
aI641
aI163
aI1825
aI1192
aI1932
aI1805
aI1141
aI1595
aI1877
atp1500
Rp1501
sI500
g1
((lp1502
I1851
aI1507
atp1503
Rp1504
sI501
g1
((lp1505
I224
aI2427
atp1506
Rp1507
sI502
g1
((lp1508
I640
aI337
aI2457
atp1509
Rp1510
sI503
g1
((lp1511
I1608
aI1552
aI67
aI1839
atp1512
Rp1513
sI504
g1
((lp1514
I1701
aI1995
aI2093
aI214
aI1306
aI1755
atp1515
Rp1516
sI505
g1
((lp1517
I971
aI972
aI973
aI974
aI975
aI1234
atp1518
Rp1519
sI506
g1
((lp1520
I1408
aI2273
aI2274
aI2272
aI1574
aI193
aI2269
aI2282
aI652
aI1325
aI2271
aI1455
aI192
aI2122
aI2293
aI2294
aI2267
aI2268
aI2301
aI2303
atp1521
Rp1522
sI507
g1
((lp1523
I1800
aI960
aI2468
aI216
aI470
atp1524
Rp1525
sI508
g1
((lp1526
I1905
aI1906
aI700
aI2013
aI653
atp1527
Rp1528
sI509
g1
((lp1529
I342
aI344
aI311
aI312
aI313
aI314
aI316
aI1342
aI319
aI1865
aI1868
aI1741
aI1745
aI318
aI2262
aI343
aI1752
aI346
aI347
aI349
aI350
aI351
aI353
aI354
aI355
aI356
aI358
aI1854
atp1530
Rp1531
sI510
g1
((lp1532
I2128
aI1335
atp1533
Rp1534
sI511
g1
((lp1535
I705
aI865
aI1807
atp1536
Rp1537
sI512
g1
((lp1538
I435
aI1974
atp1539
Rp1540
sI513
g1
((lp1541
I424
aI429
aI1710
aI2327
atp1542
Rp1543
sI514
g1
((lp1544
I1120
aI1921
aI1922
aI1923
aI1924
aI1585
aI1579
aI1896
aI1802
aI1495
aI1422
aI1588
aI209
aI1876
aI1909
aI1815
aI1860
aI1593
aI1118
atp1545
Rp1546
sI515
g1
((lp1547
I1603
aI1947
aI222
atp1548
Rp1549
sI516
g1
((lp1550
I546
aI547
aI964
aI1324
aI1838
aI548
aI1817
atp1551
Rp1552
sI517
g1
((lp1553
I1979
aI1722
aI549
aI309
aI1759
atp1554
Rp1555
sI518
g1
((lp1556
I1624
aI370
aI1735
atp1557
Rp1558
sI519
g1
((lp1559
I1732
aI1527
atp1560
Rp1561
sI520
g1
((lp1562
I1738
aI1742
atp1563
Rp1564
sI521
g1
((lp1565
I373
aI1733
atp1566
Rp1567
sI522
g1
((lp1568
I1841
aI1845
aI151
aI792
aI697
aI693
atp1569
Rp1570
sI523
g1
((lp1571
I634
aI2331
atp1572
Rp1573
sI524
g1
((lp1574
I546
aI547
aI549
aI1324
aI309
aI1722
aI1759
atp1575
Rp1576
sI525
g1
((lp1577
I11
aI1038
aI1039
aI1681
aI660
aI2328
aI25
aI668
aI2335
aI1313
aI1954
aI420
aI453
aI686
aI55
aI952
aI1951
aI1596
aI833
aI1349
aI1606
aI1996
aI1614
aI1743
aI1872
aI1389
aI1393
aI1016
aI1022
atp1578
Rp1579
sI526
g1
((lp1580
I1152
aI1546
aI583
atp1581
Rp1582
sI527
g1
((lp1583
I2155
aI1143
atp1584
Rp1585
sI528
g1
((lp1586
I579
aI750
atp1587
Rp1588
sI529
g1
((lp1589
I2016
aI1766
aI461
aI845
aI759
aI1021
atp1590
Rp1591
sI530
g1
((lp1592
I2184
aI68
aI359
atp1593
Rp1594
sI531
g1
((lp1595
I995
aI2359
atp1596
Rp1597
sI532
g1
((lp1598
I1843
aI75
atp1599
Rp1600
sI533
g1
((lp1601
I673
aI2178
aI2179
aI558
aI561
aI533
aI2166
aI2167
aI2172
aI2173
aI2174
aI2165
atp1602
Rp1603
sI534
g1
((lp1604
I1875
aI1948
atp1605
Rp1606
sI535
g1
((lp1607
I384
aI733
atp1608
Rp1609
sI536
g1
((lp1610
I1281
aI1795
aI1669
aI137
aI1547
aI2444
aI783
aI912
aI1558
aI1559
aI1560
aI555
aI674
aI169
aI1194
aI1195
aI172
aI1070
aI2479
aI689
aI1075
aI1033
aI2101
aI1545
aI2489
aI698
aI702
aI1600
aI1729
aI1219
aI1604
aI2373
aI2246
aI801
aI200
aI588
aI1490
aI1748
aI441
aI984
aI219
aI2313
aI481
aI1116
aI1138
aI1784
aI1096
atp1611
Rp1612
sI537
g1
((lp1613
I73
aI1611
aI1583
aI2343
atp1614
Rp1615
sI538
g1
((lp1616
I1977
aI1181
atp1617
Rp1618
sI539
g1
((lp1619
I2442
aI1727
atp1620
Rp1621
sI540
g1
((lp1622
I608
aI1321
aI1650
aI1374
aI399
atp1623
Rp1624
sI541
g1
((lp1625
I1489
aI1398
atp1626
Rp1627
sI542
g1
((lp1628
I1577
aI1554
aI246
atp1629
Rp1630
sI543
g1
((lp1631
I1785
aI1411
aI1796
aI691
aI1790
atp1632
Rp1633
sI544
g1
((lp1634
I1984
aI1945
aI1066
aI2112
aI2359
atp1635
Rp1636
sI545
g1
((lp1637
I1569
aI74
aI1690
atp1638
Rp1639
sI546
g1
((lp1640
I208
aI1715
aI1716
aI1719
aI1720
aI212
atp1641
Rp1642
sI547
g1
((lp1643
I2433
aI1830
aI1607
atp1644
Rp1645
sI548
g1
((lp1646
I544
aI377
aI659
atp1647
Rp1648
sI549
g1
((lp1649
I1508
aI1563
aI1332
atp1650
Rp1651
sI550
g1
((lp1652
I1699
aI2364
atp1653
Rp1654
sI551
g1
((lp1655
I2474
aI1423
atp1656
Rp1657
sI552
g1
((lp1658
I981
aI822
atp1659
Rp1660
sI553
g1
((lp1661
I1461
aI789
aI1870
aI1911
atp1662
Rp1663
sI554
g1
((lp1664
I1161
aI433
atp1665
Rp1666
sI555
g1
((lp1667
I2147
aI815
atp1668
Rp1669
sI556
g1
((lp1670
I27
atp1671
Rp1672
sI557
g1
((lp1673
I768
aI577
aI27
aI1220
aI581
aI198
aI2184
aI1948
aI1834
aI1964
aI813
aI2061
aI104
aI1581
aI726
aI120
aI719
aI1756
aI1691
aI382
aI2309
atp1674
Rp1675
sI558
g1
((lp1676
I528
atp1677
Rp1678
sI559
g1
((lp1679
I120
aI1948
aI1964
aI581
aI382
atp1680
Rp1681
sI560
g1
((lp1682
I198
aI2184
aI1834
aI2061
aI104
aI27
atp1683
Rp1684
sI561
g1
((lp1685
I731
aI1900
aI1901
atp1686
Rp1687
sI562
g1
((lp1688
I120
aI1834
aI581
aI382
atp1689
Rp1690
sI563
g1
((lp1691
I2483
aI812
atp1692
Rp1693
sI564
g1
((lp1694
I968
aI472
aI1810
aI2156
atp1695
Rp1696
sI565
g1
((lp1697
I467
aI1182
aI2031
atp1698
Rp1699
sI566
g1
((lp1700
I2320
aI1430
atp1701
Rp1702
sI567
g1
((lp1703
I2206
aI2210
aI1618
aI1206
atp1704
Rp1705
sI568
g1
((lp1706
I2232
aI2472
aI1626
aI2187
aI1151
atp1707
Rp1708
sI569
g1
((lp1709
I1184
aI163
aI1932
aI1805
aI1877
aI1595
atp1710
Rp1711
sI570
g1
((lp1712
I1184
aI163
aI1595
aI1877
aI1805
atp1713
Rp1714
sI571
g1
((lp1715
I2090
aI830
atp1716
Rp1717
sI572
g1
((lp1718
I2192
aI1541
aI1768
aI1488
aI1046
aI633
aI127
atp1719
Rp1720
sI573
g1
((lp1721
I1536
aI385
aI1541
aI1927
aI2315
aI2192
aI530
aI1046
aI2204
aI557
aI1966
aI2100
aI1844
aI2490
aI2250
aI1486
aI1488
aI1372
aI483
aI998
aI742
aI1768
aI364
aI1523
aI374
aI2423
aI376
aI633
aI1406
aI127
atp1722
Rp1723
sI574
g1
((lp1724
I176
aI1637
atp1725
Rp1726
sI575
g1
((lp1727
I1128
aI1180
aI1020
atp1728
Rp1729
sI576
g1
((lp1730
I153
aI1555
aI2449
atp1731
Rp1732
sI577
g1
((lp1733
I1754
aI1747
aI1750
atp1734
Rp1735
sI578
g1
((lp1736
I1036
aI1709
aI2447
aI983
aI920
aI251
aI2141
aI2175
atp1737
Rp1738
sI579
g1
((lp1739
I1793
aI1425
atp1740
Rp1741
sI580
g1
((lp1742
I1544
aI911
atp1743
Rp1744
sI581
g1
((lp1745
I336
aI162
aI1084
aI2157
atp1746
Rp1747
sI582
g1
((lp1748
I581
atp1749
Rp1750
sI583
g1
((lp1751
I1145
aI131
atp1752
Rp1753
sI584
g1
((lp1754
I1157
aI1463
atp1755
Rp1756
sI585
g1
((lp1757
I587
aI196
aI1799
aI375
aI140
aI1869
aI139
aI1847
aI1880
aI836
aI1594
aI1855
aI2428
aI1757
aI1375
atp1758
Rp1759
sI586
g1
((lp1760
I1772
aI2412
aI2387
aI116
aI2389
aI2391
aI2388
aI2394
aI2395
aI2396
aI2397
aI2393
atp1761
Rp1762
sI587
g1
((lp1763
I112
aI2417
aI2418
aI2413
aI2416
aI17
aI18
aI2419
aI116
aI2421
aI2422
aI1879
aI2420
aI410
aI1749
atp1764
Rp1765
sI588
g1
((lp1766
I1959
aI1417
aI2059
aI1168
aI2292
aI764
aI1823
atp1767
Rp1768
sI589
g1
((lp1769
I1216
aI451
atp1770
Rp1771
sI590
g1
((lp1772
I1318
atp1773
Rp1774
sI591
g1
((lp1775
I1000
aI1971
aI397
atp1776
Rp1777
sI592
g1
((lp1778
I248
aI1859
aI1573
atp1779
Rp1780
sI593
g1
((lp1781
I1907
aI2119
atp1782
Rp1783
sI594
g1
((lp1784
I1265
aI1083
aI1973
aI5
atp1785
Rp1786
sI595
g1
((lp1787
I1355
aI1323
aI1085
atp1788
Rp1789
sI596
g1
((lp1790
I696
aI2312
aI1828
aI303
atp1791
Rp1792
sI597
g1
((lp1793
I125
aI327
atp1794
Rp1795
sI598
g1
((lp1796
I1978
aI1610
aI1330
aI1221
atp1797
Rp1798
sI599
g1
((lp1799
I1874
aI959
atp1800
Rp1801
sI600
g1
((lp1802
I757
aI1902
atp1803
Rp1804
sI601
g1
((lp1805
I2492
aI1357
atp1806
Rp1807
sI602
g1
((lp1808
I1907
aI2492
aI1357
aI2119
atp1809
Rp1810
sI603
g1
((lp1811
I1889
aI259
atp1812
Rp1813
sI604
g1
((lp1814
I1833
aI2501
atp1815
Rp1816
sI605
g1
((lp1817
I2208
aI1347
aI585
aI2378
aI1550
aI240
aI1874
aI1307
aI476
aI2205
atp1818
Rp1819
sI606
g1
((lp1820
I104
aI582
atp1821
Rp1822
sI607
g1
((lp1823
I226
aI1570
aI78
atp1824
Rp1825
s.