(dp0
I0
I0
sI1
I1
sI2
I2
sI3
I3
sI4
I4
sI5
I5
sI6
I6
sI7
I7
sI8
I8
sI9
I9
sI10
I10
sI11
I11
sI12
I12
sI13
I13
sI14
I14
sI15
I15
sI16
I16
sI17
I17
sI18
I18
sI19
I19
sI20
I20
sI21
I21
sI22
I22
sI23
I23
sI24
I24
sI25
I25
sI26
I26
sI27
I27
sI28
I28
sI29
I29
sI30
I30
sI31
I31
sI32
I32
sI33
I33
sI34
I34
sI35
I35
sI36
I36
sI37
I37
sI38
I38
sI39
I39
sI40
I40
sI41
I41
sI42
I42
sI43
I43
sI44
I44
sI45
I45
sI46
I46
sI47
I47
sI48
I48
sI49
I49
sI50
I50
sI51
I51
sI52
I52
sI53
I53
sI54
I54
sI55
I55
sI56
I56
sI57
I57
sI58
I58
sI59
I59
sI60
I60
sI61
I61
sI62
I62
sI63
I63
sI64
I64
sI65
I65
sI66
I66
sI67
I67
sI68
I68
sI69
I69
sI70
I70
sI71
I71
sI72
I72
sI73
I73
sI74
I74
sI75
I75
sI76
I76
sI77
I77
sI78
I78
sI79
I79
sI80
I80
sI81
I81
sI82
I82
sI83
I83
sI84
I84
sI85
I85
sI86
I86
sI87
I87
sI88
I88
sI89
I89
sI90
I90
sI91
I91
sI92
I92
sI93
I93
sI94
I94
sI95
I95
sI96
I96
sI97
I97
sI98
I98
sI99
I99
sI100
I100
sI101
I101
sI102
I102
sI103
I103
sI104
I104
sI105
I105
sI106
I106
sI107
I107
sI108
I108
sI109
I109
sI110
I110
sI111
I111
sI112
I112
sI113
I113
sI114
I114
sI115
I115
sI116
I116
sI117
I117
sI118
I118
sI119
I119
sI120
I120
sI121
I121
sI122
I122
sI123
I123
sI124
I124
sI125
I125
sI126
I126
sI127
I127
sI128
I128
sI129
I129
sI130
I130
sI131
I131
sI132
I132
sI133
I133
sI134
I134
sI135
I135
sI136
I136
sI137
I137
sI138
I138
sI139
I139
sI140
I140
sI141
I141
sI142
I142
sI143
I143
sI144
I144
sI145
I145
sI146
I146
sI147
I147
sI148
I148
sI149
I149
sI150
I150
sI151
I151
sI152
I152
sI153
I153
sI154
I154
sI155
I155
sI156
I156
sI157
I157
sI158
I158
sI159
I159
sI160
I160
sI161
I161
sI162
I162
sI163
I163
sI164
I164
sI165
I165
sI166
I166
sI167
I167
sI168
I168
sI169
I169
sI170
I170
sI171
I171
sI172
I172
sI173
I173
sI174
I174
sI175
I175
sI176
I176
sI177
I177
sI178
I178
sI179
I179
sI180
I180
sI181
I181
sI182
I182
sI183
I183
sI184
I184
sI185
I185
sI186
I186
sI187
I187
sI188
I188
sI189
I189
sI190
I190
sI191
I191
sI192
I192
sI193
I193
sI194
I194
sI195
I195
sI196
I196
sI197
I197
sI198
I198
sI199
I199
sI200
I200
sI201
I201
sI202
I202
sI203
I203
sI204
I204
sI205
I205
sI206
I206
sI207
I207
sI208
I208
sI209
I209
sI210
I210
sI211
I211
sI212
I212
sI213
I213
sI214
I214
sI215
I215
sI216
I216
sI217
I217
sI218
I218
sI219
I219
sI220
I220
sI221
I221
sI222
I222
sI223
I223
sI224
I224
sI225
I225
sI226
I226
sI227
I227
sI228
I228
sI229
I229
sI230
I230
sI231
I231
sI232
I232
sI233
I233
sI234
I234
sI235
I235
sI236
I236
sI237
I237
sI238
I238
sI239
I239
sI240
I240
sI241
I241
sI242
I242
sI243
I243
sI244
I244
sI245
I245
sI246
I246
sI247
I247
sI248
I248
sI249
I249
sI250
I250
sI251
I251
sI252
I252
sI253
I253
sI254
I254
sI255
I255
sI256
I256
sI257
I257
sI258
I258
sI259
I259
sI260
I260
sI261
I261
sI262
I262
sI263
I263
sI264
I264
sI265
I265
sI266
I266
sI267
I267
sI268
I268
sI269
I269
sI270
I270
sI271
I271
sI272
I272
sI273
I273
sI274
I274
sI275
I275
sI276
I276
sI277
I277
sI278
I278
sI279
I279
sI280
I280
sI281
I281
sI282
I282
sI283
I283
sI284
I284
sI285
I285
sI286
I286
sI287
I287
sI288
I288
sI289
I289
sI290
I290
sI291
I291
sI292
I292
sI293
I293
sI294
I294
sI295
I295
sI296
I296
sI297
I297
sI298
I298
sI299
I299
sI300
I300
sI301
I301
sI302
I302
sI303
I303
sI304
I304
sI305
I305
sI306
I306
sI307
I307
sI308
I308
sI309
I309
sI310
I310
sI311
I311
sI312
I312
sI313
I313
sI314
I314
sI315
I315
sI316
I316
sI317
I317
sI318
I318
sI319
I319
sI320
I320
sI321
I321
sI322
I322
sI323
I323
sI324
I324
sI325
I325
sI326
I326
sI327
I327
sI328
I328
sI329
I329
sI330
I330
sI331
I331
sI332
I332
sI333
I333
sI334
I334
sI335
I335
sI336
I336
sI337
I337
sI338
I338
sI339
I339
sI340
I340
sI341
I341
sI342
I342
sI343
I343
sI344
I344
sI345
I345
sI346
I346
sI347
I347
sI348
I348
sI349
I349
sI350
I350
sI351
I351
sI352
I352
sI353
I353
sI354
I354
sI355
I355
sI356
I356
sI357
I357
sI358
I358
sI359
I359
sI360
I360
sI361
I361
sI362
I362
sI363
I363
sI364
I364
sI365
I365
sI366
I366
sI367
I367
sI368
I368
sI369
I369
sI370
I370
sI371
I371
sI372
I372
sI373
I373
sI374
I374
sI375
I375
sI376
I376
sI377
I377
sI378
I378
sI379
I379
sI380
I380
sI381
I381
sI382
I382
sI383
I383
sI384
I384
sI385
I385
sI386
I386
sI387
I387
sI388
I388
sI389
I389
sI390
I390
sI391
I391
sI392
I392
sI393
I393
sI394
I394
sI395
I395
sI396
I396
sI397
I397
sI398
I398
sI399
I399
sI400
I400
sI401
I401
sI402
I402
sI403
I403
sI404
I404
sI405
I405
sI406
I406
sI407
I407
sI408
I408
sI409
I409
sI410
I410
sI411
I411
sI412
I412
sI413
I413
sI414
I414
sI415
I415
sI416
I416
sI417
I417
sI418
I418
sI419
I419
sI420
I420
sI421
I421
sI422
I422
sI423
I423
sI424
I424
sI425
I425
sI426
I426
sI427
I427
sI428
I428
sI429
I429
sI430
I430
sI431
I431
sI432
I432
sI433
I433
sI434
I434
sI435
I435
sI436
I436
sI437
I437
sI438
I438
sI439
I439
sI440
I440
sI441
I441
sI442
I442
sI443
I443
sI444
I444
sI445
I445
sI446
I446
sI447
I447
sI448
I448
sI449
I449
sI450
I450
sI451
I451
sI452
I452
sI453
I453
sI454
I454
sI455
I455
sI456
I456
sI457
I457
sI458
I458
sI459
I459
sI460
I460
sI461
I461
sI462
I462
sI463
I463
sI464
I464
sI465
I465
sI466
I466
sI467
I467
sI468
I468
sI469
I469
sI470
I470
sI471
I471
sI472
I472
sI473
I473
sI474
I474
sI475
I475
sI476
I476
sI477
I477
sI478
I478
sI479
I479
sI480
I480
sI481
I481
sI482
I482
sI483
I483
sI484
I484
sI485
I485
sI486
I486
sI487
I487
sI488
I488
sI489
I489
sI490
I490
sI491
I491
sI492
I492
sI493
I493
sI494
I494
sI495
I495
sI496
I496
sI497
I497
sI498
I498
sI499
I499
sI500
I500
sI501
I501
sI502
I502
sI503
I503
sI504
I504
sI505
I505
sI506
I506
sI507
I507
sI508
I508
sI509
I509
sI510
I510
sI511
I511
sI512
I512
sI513
I513
sI514
I514
sI515
I515
sI516
I516
sI517
I517
sI518
I518
sI519
I519
sI520
I520
sI521
I521
sI522
I522
sI523
I523
sI524
I524
sI525
I525
sI526
I526
sI527
I527
sI528
I528
sI529
I529
sI530
I530
sI531
I531
sI532
I532
sI533
I533
sI534
I534
sI535
I535
sI536
I536
sI537
I537
sI538
I538
sI539
I539
sI540
I540
sI541
I541
sI542
I542
sI543
I543
sI544
I544
sI545
I545
sI546
I546
sI547
I547
sI548
I548
sI549
I549
sI550
I550
sI551
I551
sI552
I552
sI553
I553
sI554
I554
sI555
I555
sI556
I556
sI557
I557
sI558
I558
sI559
I559
sI560
I560
sI561
I561
sI562
I562
sI563
I563
sI564
I564
sI565
I565
sI566
I566
sI567
I567
sI568
I568
sI569
I569
sI570
I570
sI571
I571
sI572
I572
sI573
I573
sI574
I574
sI575
I575
sI576
I576
sI577
I577
sI578
I578
sI579
I579
sI580
I580
sI581
I581
sI582
I582
sI583
I583
sI584
I584
sI585
I585
sI586
I586
sI587
I587
sI588
I588
sI589
I589
sI590
I590
sI591
I591
sI592
I592
sI593
I593
sI594
I594
sI595
I595
sI596
I596
sI597
I597
sI598
I598
sI599
I599
sI600
I600
sI601
I601
sI602
I602
sI603
I603
sI604
I604
sI605
I605
sI606
I606
sI607
I607
s.