(dp0
I0
F0.1
sI1
F0.22
sI2
F0.22
sI3
F0.4
sI4
F0.22
sI5
F0.65
sI6
F0.1
sI7
F0.4
sI8
F0.25
sI9
F0.33
sI10
F0.22
sI11
F0.1
sI12
F0.15
sI13
F0.12
sI14
F0.06
sI15
F0.5
sI16
F0.28
sI17
F0.22
sI18
F0.22
sI19
F0.28
sI20
F0.9
sI21
F0.92
sI22
F0.3
sI23
F0.4
sI24
F0.15
sI25
F0.3
sI26
F0.1
sI27
F0.5
sI28
F0.2
sI29
F0.25
sI30
F0.4
sI31
F0.33
sI32
F0.0
sI33
F0.5
sI34
F0.4
sI35
F0.17
sI36
F0.1
sI37
F0.4
sI38
F0.4
sI39
F0.5
sI40
F0.0
sI41
F0.35
sI42
F0.25
sI43
F0.33
sI44
F0.5
sI45
F0.0
sI46
F0.2
sI47
F0.5
sI48
F0.5
sI49
F0.1
sI50
F0.1
sI51
F0.13
sI52
F0.06
sI53
F0.1
sI54
F0.3
sI55
F0.6
sI56
F0.85
sI57
F0.5
sI58
F0.86
sI59
F0.25
sI60
F0.1
sI61
F0.5
sI62
F0.16
sI63
F0.08
sI64
F0.16
sI65
F0.35
sI66
F0.22
sI67
F0.28
sI68
F0.16
sI69
F0.16
sI70
F0.22
sI71
F0.22
sI72
F0.33
sI73
F0.13
sI74
F0.41
sI75
F0.5
sI76
F0.2
sI77
F0.25
sI78
F0.1
sI79
F0.1
sI80
F0.1
sI81
F0.15
sI82
F0.15
sI83
F0.32
sI84
F0.5
sI85
F0.1
sI86
F0.075
sI87
F0.1
sI88
F0.1
sI89
F0.0
sI90
F0.0
sI91
F0.2
sI92
F0.2
sI93
F0.1
sI94
F0.2
sI95
F0.5
sI96
F0.49
sI97
F0.8
sI98
F0.25
sI99
F0.15
sI100
F0.0
sI101
F0.17
sI102
F0.1
sI103
F0.1
sI104
F0.0
sI105
F0.2
sI106
F0.2
sI107
F0.3
sI108
F0.0
sI109
F0.1
sI110
F0.35
sI111
F0.25
sI112
F0.25
sI113
F0.1
sI114
F0.23
sI115
F0.1
sI116
F0.15
sI117
F0.1
sI118
F0.2
sI119
F0.05
sI120
F0.2
sI121
F0.2
sI122
F0.35
sI123
F0.1
sI124
F0.1
sI125
F0.25
sI126
F0.2
sI127
F0.1
sI128
F0.2
sI129
F0.15
sI130
F0.3
sI131
F0.6
sI132
F0.05
sI133
F0.1
sI134
F0.1
sI135
F0.5
sI136
F0.87
sI137
F0.1
sI138
F0.35
sI139
F0.2
sI140
F0.16
sI141
F0.2
sI142
F0.25
sI143
F0.29
sI144
F0.1
sI145
F0.4
sI146
F0.1
sI147
F0.1
sI148
F0.2
sI149
F0.1
sI150
F0.1
sI151
F0.1
sI152
F0.15
sI153
F0.16
sI154
F0.4
sI155
F0.0
sI156
F0.2
sI157
F0.1
sI158
F0.1
sI159
F0.18
sI160
F0.61
sI161
F0.2
sI162
F0.14
sI163
F0.15
sI164
F0.11
sI165
F0.3
sI166
F0.15
sI167
F0.15
sI168
F0.15
sI169
F0.25
sI170
F0.6
sI171
F0.2
sI172
F0.5
sI173
F0.1
sI174
F0.45
sI175
F0.25
sI176
F0.2
sI177
F0.0
sI178
F0.4
sI179
F0.4
sI180
F0.46
sI181
F0.25
sI182
F0.39
sI183
F0.45
sI184
F0.2
sI185
F0.33
sI186
F0.8
sI187
F0.2
sI188
F0.1
sI189
F0.5
sI190
F0.1
sI191
F0.1
sI192
F0.3
sI193
F0.1
sI194
F0.15
sI195
F0.2
sI196
F0.2
sI197
F0.3
sI198
F0.1
sI199
F0.1
sI200
F0.1
sI201
F0.5
sI202
F0.1
sI203
F0.0
sI204
F0.1
sI205
F0.25
sI206
F0.3
sI207
F0.25
sI208
F0.25
sI209
F0.8
sI210
F0.38
sI211
F0.57
sI212
F0.2
sI213
F0.4
sI214
F0.15
sI215
F0.45
sI216
F0.25
sI217
F0.27
sI218
F0.33
sI219
F0.25
sI220
F0.1
sI221
F0.17
sI222
F0.0
sI223
F0.42
sI224
F0.35
sI225
F0.5
sI226
F0.2
sI227
F0.25
sI228
F0.5
sI229
F0.1
sI230
F0.5
sI231
F0.3
sI232
F0.4
sI233
F0.15
sI234
F0.3
sI235
F0.3
sI236
F0.1
sI237
F0.2
sI238
F0.2
sI239
F0.25
sI240
F0.2
sI241
F0.2
sI242
F0.2
sI243
F0.35
sI244
F0.2
sI245
F0.2
sI246
F0.33
sI247
F0.0
sI248
F0.13
sI249
F0.25
sI250
F0.15
sI251
F0.4
sI252
F0.0
sI253
F0.3
sI254
F0.92
sI255
F0.2
sI256
F0.25
sI257
F0.4
sI258
F0.1
sI259
F0.1
sI260
F0.1
sI261
F0.15
sI262
F0.0
sI263
F0.2
sI264
F0.2
sI265
F0.2
sI266
F0.2
sI267
F0.2
sI268
F0.2
sI269
F0.3
sI270
F0.2
sI271
F0.2
sI272
F0.07
sI273
F0.1
sI274
F0.57
sI275
F0.2
sI276
F0.25
sI277
F0.2
sI278
F0.2
sI279
F0.15
sI280
F0.25
sI281
F0.05
sI282
F0.2
sI283
F0.1
sI284
F0.2
sI285
F0.0
sI286
F0.1
sI287
F0.33
sI288
F0.1
sI289
F0.5
sI290
F0.1
sI291
F0.75
sI292
F0.25
sI293
F0.1
sI294
F0.5
sI295
F0.1
sI296
F0.8
sI297
F0.5
sI298
F0.48
sI299
F0.3
sI300
F0.67
sI301
F0.33
sI302
F0.15
sI303
F0.09
sI304
F0.2
sI305
F0.2
sI306
F0.29
sI307
F0.15
sI308
F0.25
sI309
F0.22
sI310
F0.3
sI311
F0.5
sI312
F0.65
sI313
F0.15
sI314
F0.25
sI315
F0.89
sI316
F0.64
sI317
F0.67
sI318
F0.5
sI319
F0.0
sI320
F0.75
sI321
F0.15
sI322
F0.67
sI323
F0.5
sI324
F0.1
sI325
F0.1
sI326
F0.1
sI327
F0.3
sI328
F0.25
sI329
F0.1
sI330
F0.1
sI331
F0.0
sI332
F0.1
sI333
F0.1
sI334
F0.15
sI335
F0.25
sI336
F0.25
sI337
F0.5
sI338
F0.15
sI339
F0.1
sI340
F0.25
sI341
F0.06
sI342
F0.5
sI343
F0.5
sI344
F0.2
sI345
F0.2
sI346
F0.2
sI347
F0.05
sI348
F0.3
sI349
F0.3
sI350
F0.1
sI351
F0.25
sI352
F0.15
sI353
F0.15
sI354
F0.25
sI355
F0.1
sI356
F0.2
sI357
F0.1
sI358
F0.25
sI359
F0.2
sI360
F0.1
sI361
F0.25
sI362
F0.25
sI363
F0.2
sI364
F0.2
sI365
F0.25
sI366
F0.1
sI367
F0.1
sI368
F0.15
sI369
F0.33
sI370
F0.05
sI371
F0.4
sI372
F0.3
sI373
F0.15
sI374
F0.1
sI375
F0.15
sI376
F0.3
sI377
F0.3
sI378
F0.3
sI379
F0.1
sI380
F0.25
sI381
F0.2
sI382
F0.25
sI383
F0.25
sI384
F0.25
sI385
F0.25
sI386
F0.5
sI387
F0.25
sI388
F0.25
sI389
F0.25
sI390
F0.25
sI391
F0.25
sI392
F0.25
sI393
F0.25
sI394
F0.25
sI395
F0.1
sI396
F0.25
sI397
F0.15
sI398
F0.18
sI399
F0.25
sI400
F0.4
sI401
F0.0
sI402
F0.4
sI403
F0.35
sI404
F0.3
sI405
F0.25
sI406
F0.25
sI407
F0.15
sI408
F0.3
sI409
F0.23
sI410
F0.2
sI411
F0.3
sI412
F0.25
sI413
F0.1
sI414
F0.2
sI415
F0.33
sI416
F0.15
sI417
F0.0
sI418
F0.0
sI419
F0.4
sI420
F0.1
sI421
F0.1
sI422
F0.15
sI423
F0.5
sI424
F0.05
sI425
F0.25
sI426
F0.5
sI427
F0.1
sI428
F0.5
sI429
F0.2
sI430
F0.1
sI431
F0.33
sI432
F0.25
sI433
F0.07
sI434
F0.1
sI435
F0.3
sI436
F0.3
sI437
F0.1
sI438
F0.39
sI439
F0.25
sI440
F0.3
sI441
F0.15
sI442
F0.4
sI443
F0.6
sI444
F0.45
sI445
F0.3
sI446
F0.3
sI447
F0.17
sI448
F0.15
sI449
F0.38
sI450
F0.0
sI451
F0.25
sI452
F0.34
sI453
F0.33
sI454
F0.15
sI455
F0.67
sI456
F0.67
sI457
F0.62
sI458
F0.62
sI459
F0.4
sI460
F0.55
sI461
F0.25
sI462
F0.25
sI463
F0.4
sI464
F0.35
sI465
F0.45
sI466
F0.4
sI467
F0.15
sI468
F0.25
sI469
F0.2
sI470
F0.05
sI471
F0.2
sI472
F0.1
sI473
F0.1
sI474
F0.3
sI475
F0.2
sI476
F0.2
sI477
F0.0
sI478
F0.25
sI479
F0.0
sI480
F0.2
sI481
F0.2
sI482
F0.37
sI483
F0.3
sI484
F0.1
sI485
F0.15
sI486
F0.08
sI487
F0.1
sI488
F0.25
sI489
F0.11
sI490
F0.15
sI491
F0.1
sI492
F0.07
sI493
F0.25
sI494
F0.15
sI495
F0.2
sI496
F0.2
sI497
F0.1
sI498
F0.1
sI499
F0.25
sI500
F0.26
sI501
F0.2
sI502
F0.21
sI503
F0.35
sI504
F0.15
sI505
F0.37
sI506
F0.14
sI507
F0.6
sI508
F0.3
sI509
F0.3
sI510
F0.33
sI511
F0.1
sI512
F0.15
sI513
F0.15
sI514
F0.48
sI515
F0.11
sI516
F0.25
sI517
F0.25
sI518
F0.33
sI519
F0.33
sI520
F0.33
sI521
F0.33
sI522
F0.25
sI523
F0.3
sI524
F0.25
sI525
F0.2
sI526
F0.29
sI527
F0.25
sI528
F0.2
sI529
F0.2
sI530
F0.25
sI531
F0.25
sI532
F0.13
sI533
F0.4
sI534
F0.2
sI535
F0.0
sI536
F0.2
sI537
F0.2
sI538
F0.1
sI539
F0.1
sI540
F0.15
sI541
F0.2
sI542
F0.1
sI543
F0.36
sI544
F0.1
sI545
F0.2
sI546
F0.65
sI547
F0.17
sI548
F0.07
sI549
F0.2
sI550
F0.0
sI551
F0.2
sI552
F0.15
sI553
F0.15
sI554
F0.1
sI555
F0.35
sI556
F0.2
sI557
F0.3
sI558
F0.1
sI559
F0.25
sI560
F0.25
sI561
F0.15
sI562
F0.2
sI563
F0.1
sI564
F0.5
sI565
F0.34
sI566
F0.05
sI567
F0.25
sI568
F0.1
sI569
F0.15
sI570
F0.1
sI571
F0.12
sI572
F0.15
sI573
F0.15
sI574
F0.25
sI575
F0.1
sI576
F0.25
sI577
F0.1
sI578
F0.3
sI579
F0.25
sI580
F0.34
sI581
F0.2
sI582
F0.25
sI583
F0.1
sI584
F0.2
sI585
F0.2
sI586
F0.2
sI587
F0.2
sI588
F0.1
sI589
F0.15
sI590
F0.15
sI591
F0.15
sI592
F0.45
sI593
F0.2
sI594
F0.4
sI595
F0.15
sI596
F0.3
sI597
F0.28
sI598
F0.15
sI599
F0.1
sI600
F0.1
sI601
F0.2
sI602
F0.5
sI603
F0.33
sI604
F0.1
sI605
F0.3
sI606
F0.2
sI607
F0.2
s.