(dp1
I0
I409600
sI1
I40960
sI2
I516100
sI3
I8200
sI4
I10
sI5
I258050
sI6
I8210
sI7
I20
sI8
I6830
sI9
I8220
sI10
I30
sI11
I434210
sI12
I8230
sI13
I40
sI14
I385070
sI15
I8240
sI16
I50
sI17
I409651
sI18
I409652
sI19
I333150
sI20
I467000
sI21
I8250
sI22
I60
sI23
I8260
sI24
I70
sI25
I524360
sI26
I204880
sI27
I475220
sI28
I467030
sI29
I467031
sI30
I467032
sI31
I467033
sI32
I286810
sI33
I467035
sI34
I467036
sI35
I467037
sI36
I467038
sI37
I467039
sI38
I467040
sI39
I467041
sI40
I467042
sI41
I467043
sI42
I467044
sI43
I467045
sI44
I467046
sI45
I467047
sI46
I467048
sI47
I467049
sI48
I467050
sI49
I467051
sI50
I8300
sI51
I286830
sI52
I333160
sI53
I262260
sI54
I348180
sI55
I426120
sI56
I8330
sI57
I409740
sI58
I47810
sI59
I376990
sI60
I24720
sI61
I8340
sI62
I409750
sI63
I270490
sI64
I303260
sI65
I327840
sI66
I24740
sI67
I344230
sI68
I453370
sI69
I450730
sI70
I237740
sI71
I46450
sI72
I385200
sI73
I450740
sI74
I450750
sI75
I462880
sI76
I316790
sI77
I499910
sI78
I385230
sI79
I377040
sI80
I24790
sI81
I377050
sI82
I491740
sI83
I24800
sI84
I376870
sI85
I299250
sI86
I24810
sI87
I453330
sI88
I240
sI89
I389160
sI90
I434420
sI91
I229621
sI92
I229622
sI93
I377080
sI94
I229626
sI95
I229627
sI96
I229628
sI97
I229629
sI98
I229630
sI99
I336130
sI100
I368900
sI101
I375510
sI102
I393480
sI103
I450830
sI104
I467220
sI105
I418070
sI106
I280
sI107
I303390
sI108
I415730
sI109
I24870
sI110
I57640
sI111
I300
sI112
I409650
sI113
I284040
sI114
I524600
sI115
I475450
sI116
I409653
sI117
I320
sI118
I293600
sI119
I319810
sI120
I434500
sI121
I418120
sI122
I426330
sI123
I246110
sI124
I360
sI125
I409660
sI126
I237930
sI127
I270700
sI128
I508271
sI129
I49520
sI130
I344440
sI131
I459130
sI132
I380
sI133
I24960
sI134
I24963
sI135
I418180
sI136
I311690
sI137
I418190
sI138
I400
sI139
I300440
sI140
I300441
sI141
I115100
sI142
I420
sI143
I115110
sI144
I369070
sI145
I115120
sI146
I434610
sI147
I508340
sI148
I238010
sI149
I65980
sI150
I442820
sI151
I270790
sI152
I377290
sI153
I483790
sI154
I16860
sI155
I16861
sI156
I16862
sI157
I16863
sI158
I80
sI159
I16866
sI160
I16867
sI161
I16868
sI162
I385511
sI163
I451050
sI164
I500
sI165
I47870
sI166
I410110
sI167
I401920
sI168
I262230
sI169
I352780
sI170
I459280
sI171
I8280
sI172
I352790
sI173
I500250
sI174
I287260
sI175
I467034
sI176
I262690
sI177
I336420
sI178
I459310
sI179
I311860
sI180
I336440
sI181
I287290
sI182
I428810
sI183
I459330
sI184
I8290
sI185
I328270
sI186
I394680
sI187
I451160
sI188
I509032
sI189
I516700
sI190
I107104
sI191
I492130
sI192
I393830
sI193
I393831
sI194
I377450
sI195
I287340
sI196
I252690
sI197
I402030
sI198
I434800
sI199
I303730
sI200
I320120
sI201
I405610
sI202
I377470
sI203
I377480
sI204
I369290
sI205
I467600
sI206
I8850
sI207
I41070
sI208
I423365
sI209
I217200
sI210
I271010
sI211
I467620
sI212
I423366
sI213
I8870
sI214
I301720
sI215
I40940
sI216
I267720
sI217
I352950
sI218
I344770
sI219
I346730
sI220
I492240
sI221
I451290
sI222
I337360
sI223
I8930
sI224
I361190
sI225
I459500
sI226
I387880
sI227
I241790
sI228
I434940
sI229
I434941
sI230
I434942
sI231
I434943
sI232
I434944
sI233
I402180
sI234
I385800
sI235
I295690
sI236
I369420
sI237
I130
sI238
I344850
sI239
I8980
sI240
I288630
sI241
I353050
sI242
I353051
sI243
I353052
sI244
I353053
sI245
I8990
sI246
I425840
sI247
I402210
sI248
I385830
sI249
I410410
sI250
I516910
sI251
I418610
sI252
I328500
sI253
I341470
sI254
I400180
sI255
I467770
sI256
I33600
sI257
I525792
sI258
I394050
sI259
I456120
sI260
I443205
sI261
I525793
sI262
I451400
sI263
I450700
sI264
I33610
sI265
I509410
sI266
I385870
sI267
I230883
sI268
I501220
sI269
I320350
sI270
I230885
sI271
I435040
sI272
I320353
sI273
I254820
sI274
I525798
sI275
I492390
sI276
I492391
sI277
I361320
sI278
I320361
sI279
I476010
sI280
I516971
sI281
I516972
sI282
I516973
sI283
I516977
sI284
I516978
sI285
I516979
sI286
I516980
sI287
I516981
sI288
I516982
sI289
I230889
sI290
I254840
sI291
I315540
sI292
I320380
sI293
I525802
sI294
I320382
sI295
I320383
sI296
I320384
sI297
I320385
sI298
I320386
sI299
I230891
sI300
I320388
sI301
I517000
sI302
I386540
sI303
I459660
sI304
I451480
sI305
I402330
sI306
I467870
sI307
I254880
sI308
I451490
sI309
I410531
sI310
I33700
sI311
I426920
sI312
I426921
sI313
I426922
sI314
I426923
sI315
I451500
sI316
I426925
sI317
I33710
sI318
I426927
sI319
I426928
sI320
I385970
sI321
I336030
sI322
I492470
sI323
I33720
sI324
I525812
sI325
I207690
sI326
I50110
sI327
I409760
sI328
I33730
sI329
I254920
sI330
I355150
sI331
I230888
sI332
I525818
sI333
I410590
sI334
I33760
sI335
I478032
sI336
I312290
sI337
I459750
sI338
I464380
sI339
I394220
sI340
I478034
sI341
I17390
sI342
I426991
sI343
I426992
sI344
I426993
sI345
I451570
sI346
I426995
sI347
I426996
sI348
I353790
sI349
I426998
sI350
I426999
sI351
I427000
sI352
I478036
sI353
I427002
sI354
I427003
sI355
I427004
sI356
I427005
sI357
I402430
sI358
I427007
sI359
I467970
sI360
I478038
sI361
I279560
sI362
I478039
sI363
I312340
sI364
I290990
sI365
I17430
sI366
I17440
sI367
I300550
sI368
I238630
sI369
I345130
sI370
I267783
sI371
I312370
sI372
I17460
sI373
I267785
sI374
I451640
sI375
I320570
sI376
I435260
sI377
I222730
sI378
I301920
sI379
I394310
sI380
I17480
sI381
I396130
sI382
I451670
sI383
I478052
sI384
I353370
sI385
I451680
sI386
I321040
sI387
I402530
sI388
I353380
sI389
I478054
sI390
I509030
sI391
I509031
sI392
I517240
sI393
I500860
sI394
I381120
sI395
I500870
sI396
I42120
sI397
I525450
sI398
I337040
sI399
I226840
sI400
I42140
sI401
I443550
sI402
I435360
sI403
I304290
sI404
I517290
sI405
I517291
sI406
I517292
sI407
I351090
sI408
I1200
sI409
I443570
sI410
I488990
sI411
I509110
sI412
I42170
sI413
I402620
sI414
I476350
sI415
I476351
sI416
I476352
sI417
I206020
sI418
I345290
sI419
I492750
sI420
I449400
sI421
I312530
sI422
I206040
sI423
I1250
sI424
I456230
sI425
I271590
sI426
I263400
sI427
I1257
sI428
I500970
sI429
I456231
sI430
I206060
sI431
I255220
sI432
I492790
sI433
I320760
sI434
I416640
sI435
I443650
sI436
I270550
sI437
I419080
sI438
I410890
sI439
I509200
sI440
I419090
sI441
I312600
sI442
I99610
sI443
I99611
sI444
I99612
sI445
I99614
sI446
I501030
sI447
I451880
sI448
I220
sI449
I394540
sI450
I296240
sI451
I463070
sI452
I320830
sI453
I434400
sI454
I337220
sI455
I369990
sI456
I517450
sI457
I460120
sI458
I329050
sI459
I476510
sI460
I247140
sI461
I443750
sI462
I478030
sI463
I353640
sI464
I299240
sI465
I312690
sI466
I386420
sI467
I370040
sI468
I361850
sI469
I454890
sI470
I345470
sI471
I226880
sI472
I461850
sI473
I361880
sI474
I501150
sI475
I501151
sI476
I368880
sI477
I312740
sI478
I463090
sI479
I443830
sI480
I329150
sI481
I263620
sI482
I247240
sI483
I484810
sI484
I501200
sI485
I386520
sI486
I525790
sI487
I525791
sI488
I353760
sI489
I353761
sI490
I525794
sI491
I525795
sI492
I525796
sI493
I525797
sI494
I411110
sI495
I525799
sI496
I525800
sI497
I525801
sI498
I353770
sI499
I525803
sI500
I468460
sI501
I288240
sI502
I525810
sI503
I525811
sI504
I271860
sI505
I525813
sI506
I525814
sI507
I525815
sI508
I525816
sI509
I525817
sI510
I411130
sI511
I525819
sI512
I525820
sI513
I525821
sI514
I525822
sI515
I525823
sI516
I525830
sI517
I525831
sI518
I525832
sI519
I525833
sI520
I525834
sI521
I525835
sI522
I525836
sI523
I525837
sI524
I525838
sI525
I525839
sI526
I525841
sI527
I482222
sI528
I386590
sI529
I353830
sI530
I435760
sI531
I352520
sI532
I239160
sI533
I334773
sI534
I441270
sI535
I238530
sI536
I493130
sI537
I271950
sI538
I509520
sI539
I509521
sI540
I509522
sI541
I484950
sI542
I435800
sI543
I468580
sI544
I460390
sI545
I493160
sI546
I321140
sI547
I321141
sI548
I321142
sI549
I345720
sI550
I200980
sI551
I378490
sI552
I11200
sI553
I419460
sI554
I247430
sI555
I427660
sI556
I222880
sI557
I314200
sI558
I334790
sI559
I394920
sI560
I493230
sI561
I334793
sI562
I476860
sI563
I476861
sI564
I476862
sI565
I476863
sI566
I476864
sI567
I476865
sI568
I476866
sI569
I476867
sI570
I476868
sI571
I476869
sI572
I476870
sI573
I476871
sI574
I255690
sI575
I255691
sI576
I255692
sI577
I476880
sI578
I501460
sI579
I332580
sI580
I485080
sI581
I439930
sI582
I485090
sI583
I272100
sI584
I378610
sI585
I288500
sI586
I476920
sI587
I297940
sI588
I292480
sI589
I427780
sI590
I296710
sI591
I411400
sI592
I411401
sI593
I468750
sI594
I50960
sI595
I444180
sI596
I485141
sI597
I485142
sI598
I485143
sI599
I485144
sI600
I485145
sI601
I50970
sI602
I50980
sI603
I485160
sI604
I50990
sI605
I468790
sI606
I51000
sI607
I520500
sI608
I329530
sI609
I403260
sI610
I464524
sI611
I370510
sI612
I464525
sI613
I427860
sI614
I460640
sI615
I452450
sI616
I485220
sI617
I11240
sI618
I460660
sI619
I452470
sI620
I526200
sI621
I526201
sI622
I526202
sI623
I526203
sI624
I526204
sI625
I526205
sI626
I296830
sI627
I526207
sI628
I526209
sI629
I526210
sI630
I526211
sI631
I526212
sI632
I362380
sI633
I354190
sI634
I343280
sI635
I395160
sI636
I255910
sI637
I362410
sI638
I411570
sI639
I337850
sI640
I428880
sI641
I407200
sI642
I411590
sI643
I463180
sI644
I509900
sI645
I460750
sI646
I485330
sI647
I354260
sI648
I501720
sI649
I46440
sI650
I419810
sI651
I321510
sI652
I255980
sI653
I108200
sI654
I428020
sI655
I395260
sI656
I411650
sI657
I444420
sI658
I428040
sI659
I296970
sI660
I485390
sI661
I305181
sI662
I460830
sI663
I305183
sI664
I305184
sI665
I305185
sI666
I485410
sI667
I305187
sI668
I461890
sI669
I387110
sI670
I460840
sI671
I387120
sI672
I403510
sI673
I334774
sI674
I313400
sI675
I444480
sI676
I501830
sI677
I223313
sI678
I493650
sI679
I223315
sI680
I223316
sI681
I223317
sI682
I223318
sI683
I223319
sI684
I223320
sI685
I223321
sI686
I403550
sI687
I312680
sI688
I403560
sI689
I419951
sI690
I403570
sI691
I366270
sI692
I12650
sI693
I313480
sI694
I460940
sI695
I431810
sI696
I388120
sI697
I313500
sI698
I359450
sI699
I460960
sI700
I108231
sI701
I12660
sI702
I358090
sI703
I420030
sI704
I338120
sI705
I436430
sI706
I508280
sI707
I420050
sI708
I461020
sI709
I305390
sI710
I94590
sI711
I436470
sI712
I289020
sI713
I289021
sI714
I289022
sI715
I289023
sI716
I289024
sI717
I289025
sI718
I35080
sI719
I470060
sI720
I35083
sI721
I420110
sI722
I35089
sI723
I35090
sI724
I35091
sI725
I519214
sI726
I485660
sI727
I35101
sI728
I35102
sI729
I289840
sI730
I256290
sI731
I207140
sI732
I436520
sI733
I289070
sI734
I346420
sI735
I35130
sI736
I428350
sI737
I35135
sI738
I35136
sI739
I35137
sI740
I35138
sI741
I436550
sI742
I305480
sI743
I502090
sI744
I452940
sI745
I362830
sI746
I428370
sI747
I461140
sI748
I452950
sI749
I305500
sI750
I444770
sI751
I223594
sI752
I444790
sI753
I313740
sI754
I400450
sI755
I428430
sI756
I338320
sI757
I374510
sI758
I423440
sI759
I371100
sI760
I354730
sI761
I371120
sI762
I485810
sI763
I354740
sI764
I338360
sI765
I403900
sI766
I346560
sI767
I2500
sI768
I485860
sI769
I319910
sI770
I453100
sI771
I232530
sI772
I485870
sI773
I346610
sI774
I256500
sI775
I256501
sI776
I256503
sI777
I256504
sI778
I256505
sI779
I256506
sI780
I256507
sI781
I2540
sI782
I371200
sI783
I428550
sI784
I248330
sI785
I444940
sI786
I433240
sI787
I264730
sI788
I379420
sI789
I363610
sI790
I354850
sI791
I501510
sI792
I270770
sI793
I223792
sI794
I428600
sI795
I428601
sI796
I428602
sI797
I428603
sI798
I428604
sI799
I428605
sI800
I485950
sI801
I449360
sI802
I510530
sI803
I371270
sI804
I404040
sI805
I313930
sI806
I313931
sI807
I313932
sI808
I428630
sI809
I35425
sI810
I35429
sI811
I354920
sI812
I434620
sI813
I502380
sI814
I232050
sI815
I305780
sI816
I485140
sI817
I379520
sI818
I356800
sI819
I207490
sI820
I35460
sI821
I510600
sI822
I477840
sI823
I453270
sI824
I527000
sI825
I354970
sI826
I469660
sI827
I485146
sI828
I453280
sI829
I314020
sI830
I352710
sI831
I461480
sI832
I461940
sI833
I517560
sI834
I387780
sI835
I395980
sI836
I489250
sI837
I387790
sI838
I248530
sI839
I395990
sI840
I387800
sI841
I371420
sI842
I232570
sI843
I469730
sI844
I469740
sI845
I371350
sI846
I510710
sI847
I397780
sI848
I207610
sI849
I19200
sI850
I461570
sI851
I207620
sI852
I486150
sI853
I387850
sI854
I453390
sI855
I463320
sI856
I338710
sI857
I486170
sI858
I486190
sI859
I371510
sI860
I240440
sI861
I346940
sI862
I502590
sI863
I363330
sI864
I494410
sI865
I319970
sI866
I437070
sI867
I478031
sI868
I510800
sI869
I478033
sI870
I461650
sI871
I478035
sI872
I494420
sI873
I478037
sI874
I363351
sI875
I396120
sI876
I478041
sI877
I478042
sI878
I478043
sI879
I478044
sI880
I478045
sI881
I478046
sI882
I478047
sI883
I478049
sI884
I478050
sI885
I478051
sI886
I428900
sI887
I478053
sI888
I379750
sI889
I478055
sI890
I478056
sI891
I478057
sI892
I478058
sI893
I396140
sI894
I289650
sI895
I35700
sI896
I437110
sI897
I306040
sI898
I461690
sI899
I33650
sI900
I366400
sI901
I35720
sI902
I387980
sI903
I387981
sI904
I387982
sI905
I387983
sI906
I387984
sI907
I437140
sI908
I428950
sI909
I461720
sI910
I265120
sI911
I420770
sI912
I355240
sI913
I314290
sI914
I412600
sI915
I410100
sI916
I461760
sI917
I330690
sI918
I463350
sI919
I396230
sI920
I388050
sI921
I461780
sI922
I371670
sI923
I396250
sI924
I363490
sI925
I265191
sI926
I265192
sI927
I265193
sI928
I494570
sI929
I445420
sI930
I306160
sI931
I363510
sI932
I38740
sI933
I289800
sI934
I281610
sI935
I333170
sI936
I338960
sI937
I355350
sI938
I306200
sI939
I420890
sI940
I289820
sI941
I338980
sI942
I453670
sI943
I519210
sI944
I519211
sI945
I519213
sI946
I502830
sI947
I519215
sI948
I519216
sI949
I519217
sI950
I519218
sI951
I519219
sI952
I461880
sI953
I502841
sI954
I340490
sI955
I388160
sI956
I11330
sI957
I396360
sI958
I11340
sI959
I288610
sI960
I449720
sI961
I314450
sI962
I330840
sI963
I444260
sI964
I404570
sI965
I478300
sI966
I478301
sI967
I11360
sI968
I486880
sI969
I232550
sI970
I11370
sI971
I461931
sI972
I461932
sI973
I461933
sI974
I461934
sI975
I461935
sI976
I355440
sI977
I388210
sI978
I380020
sI979
I230880
sI980
I355450
sI981
I470140
sI982
I11390
sI983
I399460
sI984
I363650
sI985
I273540
sI986
I289930
sI987
I449730
sI988
I232590
sI989
I519212
sI990
I298140
sI991
I459290
sI992
I470180
sI993
I369180
sI994
I437420
sI995
I380080
sI996
I230882
sI997
I453810
sI998
I317300
sI999
I11450
sI1000
I370550
sI1001
I462030
sI1002
I403320
sI1003
I418340
sI1004
I3300
sI1005
I386940
sI1006
I470250
sI1007
I230884
sI1008
I3310
sI1009
I526206
sI1010
I339190
sI1011
I3320
sI1012
I27900
sI1013
I421120
sI1014
I3330
sI1015
I355590
sI1016
I511240
sI1017
I403330
sI1018
I27920
sI1019
I3350
sI1020
I334270
sI1021
I374660
sI1022
I453850
sI1023
I3360
sI1024
I404770
sI1025
I27940
sI1026
I421160
sI1027
I421161
sI1028
I421162
sI1029
I421163
sI1030
I421164
sI1031
I421165
sI1032
I421166
sI1033
I384221
sI1034
I3380
sI1035
I44350
sI1036
I449760
sI1037
I396610
sI1038
I511300
sI1039
I511301
sI1040
I3400
sI1041
I445770
sI1042
I388430
sI1043
I320360
sI1044
I3410
sI1045
I281940
sI1046
I333710
sI1047
I232790
sI1048
I388440
sI1049
I412900
sI1050
I462170
sI1051
I216411
sI1052
I216412
sI1053
I216413
sI1054
I216414
sI1055
I216415
sI1056
I216416
sI1057
I216417
sI1058
I216418
sI1059
I216419
sI1060
I216420
sI1061
I216421
sI1062
I3430
sI1063
I28010
sI1064
I28011
sI1065
I3440
sI1066
I363890
sI1067
I19830
sI1068
I63380
sI1069
I3450
sI1070
I273240
sI1071
I3460
sI1072
I339340
sI1073
I320362
sI1074
I249230
sI1075
I396690
sI1076
I339350
sI1077
I3480
sI1078
I520772
sI1079
I486810
sI1080
I429470
sI1081
I257350
sI1082
I511400
sI1083
I454060
sI1084
I331181
sI1085
I355760
sI1086
I3390
sI1087
I350110
sI1088
I363960
sI1089
I488010
sI1090
I282050
sI1091
I351461
sI1092
I437701
sI1093
I437702
sI1094
I339400
sI1095
I307010
sI1096
I363980
sI1097
I351480
sI1098
I454100
sI1099
I527830
sI1100
I527831
sI1101
I527832
sI1102
I527833
sI1103
I347610
sI1104
I527835
sI1105
I527836
sI1106
I527837
sI1107
I527838
sI1108
I527839
sI1109
I527841
sI1110
I3560
sI1111
I282090
sI1112
I282091
sI1113
I282092
sI1114
I455250
sI1115
I306670
sI1116
I249330
sI1117
I306680
sI1118
I200185
sI1119
I3580
sI1120
I200189
sI1121
I429570
sI1122
I3590
sI1123
I396810
sI1124
I269570
sI1125
I503310
sI1126
I249360
sI1127
I355860
sI1128
I291190
sI1129
I298520
sI1130
I331300
sI1131
I107100
sI1132
I486960
sI1133
I306440
sI1134
I396850
sI1135
I224820
sI1136
I454200
sI1137
I405050
sI1138
I359440
sI1139
I462400
sI1140
I8800
sI1141
I208140
sI1142
I410210
sI1143
I233470
sI1144
I501690
sI1145
I487010
sI1146
I208500
sI1147
I320370
sI1148
I3710
sI1149
I437890
sI1150
I429700
sI1151
I298630
sI1152
I237990
sI1153
I3720
sI1154
I620
sI1155
I429710
sI1156
I429711
sI1157
I384280
sI1158
I3730
sI1159
I224920
sI1160
I320371
sI1161
I374880
sI1162
I356000
sI1163
I339620
sI1164
I233130
sI1165
I224940
sI1166
I339630
sI1167
I478040
sI1168
I388790
sI1169
I298680
sI1170
I422120
sI1171
I224960
sI1172
I364230
sI1173
I306890
sI1174
I224980
sI1175
I364250
sI1176
I331490
sI1177
I331491
sI1178
I331492
sI1179
I225000
sI1180
I370020
sI1181
I413420
sI1182
I364270
sI1183
I11560
sI1184
I415700
sI1185
I438010
sI1186
I225020
sI1187
I495360
sI1188
I495361
sI1189
I495370
sI1190
I495371
sI1191
I438030
sI1192
I241430
sI1193
I413470
sI1194
I372511
sI1195
I372512
sI1196
I257830
sI1197
I487220
sI1198
I217810
sI1199
I44340
sI1200
I3900
sI1201
I438080
sI1202
I266050
sI1203
I421700
sI1204
I3910
sI1205
I487240
sI1206
I274250
sI1207
I429900
sI1208
I429901
sI1209
I429902
sI1210
I429903
sI1211
I429904
sI1212
I429905
sI1213
I429906
sI1214
I429907
sI1215
I429908
sI1216
I470870
sI1217
I331610
sI1218
I233310
sI1219
I444390
sI1220
I487270
sI1221
I208750
sI1222
I487280
sI1223
I520050
sI1224
I520051
sI1225
I520052
sI1226
I520053
sI1227
I520054
sI1228
I520055
sI1229
I520056
sI1230
I520057
sI1231
I520058
sI1232
I520059
sI1233
I520060
sI1234
I397190
sI1235
I462730
sI1236
I208790
sI1237
I208791
sI1238
I208792
sI1239
I208793
sI1240
I208795
sI1241
I208796
sI1242
I208797
sI1243
I208798
sI1244
I208799
sI1245
I208800
sI1246
I520101
sI1247
I520102
sI1248
I208807
sI1249
I208808
sI1250
I208809
sI1251
I208810
sI1252
I208811
sI1253
I208812
sI1254
I208813
sI1255
I520110
sI1256
I520111
sI1257
I520112
sI1258
I208817
sI1259
I208818
sI1260
I315320
sI1261
I511930
sI1262
I210933
sI1263
I430020
sI1264
I257990
sI1265
I331720
sI1266
I396620
sI1267
I210936
sI1268
I528340
sI1269
I265550
sI1270
I528342
sI1271
I528343
sI1272
I528344
sI1273
I528345
sI1274
I528346
sI1275
I528347
sI1276
I528348
sI1277
I528349
sI1278
I528350
sI1279
I528351
sI1280
I528352
sI1281
I266210
sI1282
I528360
sI1283
I528361
sI1284
I528362
sI1285
I528363
sI1286
I528364
sI1287
I528365
sI1288
I528367
sI1289
I528368
sI1290
I528369
sI1291
I528371
sI1292
I528380
sI1293
I528381
sI1294
I528382
sI1295
I528383
sI1296
I528384
sI1297
I528385
sI1298
I528386
sI1299
I528387
sI1300
I528388
sI1301
I528389
sI1302
I528390
sI1303
I528391
sI1304
I528392
sI1305
I332460
sI1306
I307210
sI1307
I299020
sI1308
I331790
sI1309
I405520
sI1310
I225300
sI1311
I307230
sI1312
I340000
sI1313
I454690
sI1314
I397350
sI1315
I225320
sI1316
I3420
sI1317
I258090
sI1318
I453880
sI1319
I405550
sI1320
I397370
sI1321
I61500
sI1322
I28000
sI1323
I438340
sI1324
I266310
sI1325
I73057
sI1326
I388450
sI1327
I348240
sI1328
I430170
sI1329
I230887
sI1330
I389220
sI1331
I340070
sI1332
I471740
sI1333
I528490
sI1334
I462960
sI1335
I282470
sI1336
I446590
sI1337
I274560
sI1338
I471170
sI1339
I258180
sI1340
I473110
sI1341
I249990
sI1342
I427001
sI1343
I413840
sI1344
I397460
sI1345
I389270
sI1346
I258200
sI1347
I372890
sI1348
I315550
sI1349
I495780
sI1350
I305180
sI1351
I495790
sI1352
I78000
sI1353
I348340
sI1354
I305182
sI1355
I463030
sI1356
I209080
sI1357
I487610
sI1358
I397500
sI1359
I455370
sI1360
I389310
sI1361
I463040
sI1362
I291010
sI1363
I487620
sI1364
I348360
sI1365
I463050
sI1366
I372940
sI1367
I305186
sI1368
I438480
sI1369
I430290
sI1370
I450780
sI1371
I357070
sI1372
I291030
sI1373
I430300
sI1374
I299230
sI1375
I488970
sI1376
I430310
sI1377
I430311
sI1378
I430312
sI1379
I430313
sI1380
I430314
sI1381
I430315
sI1382
I430316
sI1383
I430317
sI1384
I430318
sI1385
I430319
sI1386
I430320
sI1387
I430321
sI1388
I430322
sI1389
I463100
sI1390
I12540
sI1391
I200960
sI1392
I225540
sI1393
I463110
sI1394
I400770
sI1395
I12560
sI1396
I454930
sI1397
I282900
sI1398
I471320
sI1399
I730
sI1400
I200990
sI1401
I438560
sI1402
I305200
sI1403
I430370
sI1404
I387770
sI1405
I201000
sI1406
I307500
sI1407
I454960
sI1408
I73096
sI1409
I201010
sI1410
I397620
sI1411
I250180
sI1412
I340300
sI1413
I413070
sI1414
I340310
sI1415
I495960
sI1416
I284730
sI1417
I425360
sI1418
I291170
sI1419
I235580
sI1420
I463210
sI1421
I495980
sI1422
I233840
sI1423
I471410
sI1424
I463220
sI1425
I432190
sI1426
I283000
sI1427
I348540
sI1428
I319850
sI1429
I12670
sI1430
I414080
sI1431
I235584
sI1432
I242050
sI1433
I283020
sI1434
I250260
sI1435
I94620
sI1436
I496030
sI1437
I20900
sI1438
I446900
sI1439
I20920
sI1440
I233920
sI1441
I512450
sI1442
I397770
sI1443
I12750
sI1444
I250320
sI1445
I405970
sI1446
I233940
sI1447
I258520
sI1448
I363940
sI1449
I340730
sI1450
I496100
sI1451
I496101
sI1452
I233960
sI1453
I223314
sI1454
I347560
sI1455
I266740
sI1456
I508670
sI1457
I12790
sI1458
I520700
sI1459
I316160
sI1460
I12810
sI1461
I394870
sI1462
I406030
sI1463
I387160
sI1464
I299540
sI1465
I406040
sI1466
I12830
sI1467
I406050
sI1468
I406060
sI1469
I307760
sI1470
I520760
sI1471
I520761
sI1472
I520762
sI1473
I520763
sI1474
I520764
sI1475
I520765
sI1476
I520766
sI1477
I520767
sI1478
I520768
sI1479
I520769
sI1480
I520770
sI1481
I520771
sI1482
I389700
sI1483
I504400
sI1484
I414290
sI1485
I471640
sI1486
I317540
sI1487
I250460
sI1488
I294330
sI1489
I432230
sI1490
I368060
sI1491
I512620
sI1492
I512621
sI1493
I512622
sI1494
I373360
sI1495
I22634
sI1496
I275080
sI1497
I200130
sI1498
I365210
sI1499
I463520
sI1500
I391280
sI1501
I347590
sI1502
I262940
sI1503
I340650
sI1504
I45740
sI1505
I485490
sI1506
I422580
sI1507
I348860
sI1508
I471741
sI1509
I258750
sI1510
I258751
sI1511
I520900
sI1512
I45770
sI1513
I201420
sI1514
I45773
sI1515
I45774
sI1516
I45775
sI1517
I45776
sI1518
I381650
sI1519
I455460
sI1520
I234210
sI1521
I488170
sI1522
I316140
sI1523
I302950
sI1524
I234230
sI1525
I3540
sI1526
I463610
sI1527
I258815
sI1528
I275200
sI1529
I496390
sI1530
I488200
sI1531
I234250
sI1532
I389900
sI1533
I381710
sI1534
I381712
sI1535
I381713
sI1536
I311680
sI1537
I398100
sI1538
I527834
sI1539
I373540
sI1540
I260230
sI1541
I275240
sI1542
I389930
sI1543
I521010
sI1544
I454110
sI1545
I373560
sI1546
I425440
sI1547
I442890
sI1548
I447300
sI1549
I308040
sI1550
I283470
sI1551
I314410
sI1552
I284950
sI1553
I471910
sI1554
I463720
sI1555
I455530
sI1556
I471920
sI1557
I463750
sI1558
I455560
sI1559
I455561
sI1560
I455562
sI1561
I414610
sI1562
I488340
sI1563
I439190
sI1564
I222021
sI1565
I218020
sI1566
I496550
sI1567
I406440
sI1568
I357290
sI1569
I512940
sI1570
I454130
sI1571
I381870
sI1572
I410440
sI1573
I466420
sI1574
I414651
sI1575
I488380
sI1576
I414660
sI1577
I335350
sI1578
I488390
sI1579
I70600
sI1580
I512970
sI1581
I496590
sI1582
I406480
sI1583
I450040
sI1584
I439250
sI1585
I70616
sI1586
I383140
sI1587
I406490
sI1588
I70620
sI1589
I44360
sI1590
I373730
sI1591
I201700
sI1592
I357350
sI1593
I200188
sI1594
I324590
sI1595
I357360
sI1596
I507390
sI1597
I455670
sI1598
I398330
sI1599
I357380
sI1600
I373770
sI1601
I234510
sI1602
I250900
sI1603
I383150
sI1604
I283680
sI1605
I495110
sI1606
I496680
sI1607
I284850
sI1608
I504880
sI1609
I320352
sI1610
I95300
sI1611
I450060
sI1612
I521290
sI1613
I31270
sI1614
I339470
sI1615
I431190
sI1616
I431191
sI1617
I204303
sI1618
I365660
sI1619
I208400
sI1620
I504930
sI1621
I328550
sI1622
I201830
sI1623
I366780
sI1624
I267774
sI1625
I406650
sI1626
I349310
sI1627
I204309
sI1628
I341120
sI1629
I320363
sI1630
I204310
sI1631
I21640
sI1632
I504970
sI1633
I390290
sI1634
I234650
sI1635
I341150
sI1636
I451440
sI1637
I308420
sI1638
I284870
sI1639
I431270
sI1640
I242860
sI1641
I402290
sI1642
I451443
sI1643
I488630
sI1644
I316600
sI1645
I320372
sI1646
I21690
sI1647
I292030
sI1648
I324800
sI1649
I390340
sI1650
I61520
sI1651
I251080
sI1652
I251081
sI1653
I464080
sI1654
I488660
sI1655
I234710
sI1656
I373980
sI1657
I415080
sI1658
I13540
sI1659
I496870
sI1660
I320381
sI1661
I319017
sI1662
I382200
sI1663
I431370
sI1664
I423180
sI1665
I65920
sI1666
I320387
sI1667
I226580
sI1668
I415000
sI1669
I365850
sI1670
I431390
sI1671
I406830
sI1672
I406840
sI1673
I286260
sI1674
I513340
sI1675
I376373
sI1676
I46400
sI1677
I421630
sI1678
I406850
sI1679
I480580
sI1680
I390470
sI1681
I423240
sI1682
I254860
sI1683
I46410
sI1684
I447820
sI1685
I480590
sI1686
I480593
sI1687
I480594
sI1688
I406870
sI1689
I398680
sI1690
I450670
sI1691
I496990
sI1692
I464230
sI1693
I456040
sI1694
I373650
sI1695
I497010
sI1696
I398710
sI1697
I447870
sI1698
I521600
sI1699
I298560
sI1700
I447880
sI1701
I439690
sI1702
I497040
sI1703
I423320
sI1704
I425540
sI1705
I497050
sI1706
I439710
sI1707
I226720
sI1708
I406950
sI1709
I390570
sI1710
I456110
sI1711
I382390
sI1712
I46520
sI1713
I423361
sI1714
I423362
sI1715
I423363
sI1716
I423364
sI1717
I334070
sI1718
I439750
sI1719
I423367
sI1720
I423368
sI1721
I46540
sI1722
I410530
sI1723
I439770
sI1724
I259550
sI1725
I112100
sI1726
I390630
sI1727
I370940
sI1728
I46570
sI1729
I407020
sI1730
I431600
sI1731
I447990
sI1732
I267770
sI1733
I267771
sI1734
I341500
sI1735
I267773
sI1736
I292350
sI1737
I325120
sI1738
I267778
sI1739
I259591
sI1740
I259592
sI1741
I426924
sI1742
I267786
sI1743
I357900
sI1744
I218640
sI1745
I426926
sI1746
I431640
sI1747
I464410
sI1748
I407070
sI1749
I488991
sI1750
I464420
sI1751
I251430
sI1752
I426929
sI1753
I226860
sI1754
I464430
sI1755
I292400
sI1756
I485640
sI1757
I489010
sI1758
I456250
sI1759
I325180
sI1760
I321800
sI1761
I390720
sI1762
I451510
sI1763
I448070
sI1764
I390740
sI1765
I415320
sI1766
I439900
sI1767
I431710
sI1768
I257970
sI1769
I505440
sI1770
I439910
sI1771
I218740
sI1772
I409193
sI1773
I398970
sI1774
I464511
sI1775
I464512
sI1776
I464513
sI1777
I407830
sI1778
I464520
sI1779
I464521
sI1780
I464522
sI1781
I464523
sI1782
I448140
sI1783
I443330
sI1784
I292500
sI1785
I366230
sI1786
I259740
sI1787
I522844
sI1788
I382630
sI1789
I362780
sI1790
I366250
sI1791
I3700
sI1792
I407230
sI1793
I399040
sI1794
I513730
sI1795
I415431
sI1796
I366280
sI1797
I235210
sI1798
I382670
sI1799
I333520
sI1800
I291790
sI1801
I390870
sI1802
I235230
sI1803
I431840
sI1804
I488400
sI1805
I374500
sI1806
I284390
sI1807
I358120
sI1808
I513770
sI1809
I456430
sI1810
I489200
sI1811
I448260
sI1812
I104200
sI1813
I292620
sI1814
I423700
sI1815
I70617
sI1816
I227100
sI1817
I365530
sI1818
I423710
sI1819
I333600
sI1820
I407330
sI1821
I472870
sI1822
I341800
sI1823
I282800
sI1824
I38700
sI1825
I268080
sI1826
I492510
sI1827
I489780
sI1828
I390970
sI1829
I259900
sI1830
I279800
sI1831
I38720
sI1832
I317250
sI1833
I290060
sI1834
I423760
sI1835
I415570
sI1836
I366420
sI1837
I470670
sI1838
I365540
sI1839
I464730
sI1840
I485690
sI1841
I235360
sI1842
I55140
sI1843
I366440
sI1844
I317290
sI1845
I235380
sI1846
I391040
sI1847
I305472
sI1848
I423810
sI1849
I497540
sI1850
I312300
sI1851
I456590
sI1852
I448400
sI1853
I368730
sI1854
I426990
sI1855
I489300
sI1856
I481180
sI1857
I463440
sI1858
I391070
sI1859
I423840
sI1860
I70640
sI1861
I63398
sI1862
I63399
sI1863
I391080
sI1864
I333740
sI1865
I426994
sI1866
I456630
sI1867
I513980
sI1868
I426997
sI1869
I489410
sI1870
I332790
sI1871
I497620
sI1872
I448470
sI1873
I498520
sI1874
I276440
sI1875
I464860
sI1876
I70650
sI1877
I415710
sI1878
I211280
sI1879
I409254
sI1880
I489450
sI1881
I346450
sI1882
I456690
sI1883
I210931
sI1884
I210932
sI1885
I210934
sI1886
I350200
sI1887
I317440
sI1888
I514050
sI1889
I432470
sI1890
I333830
sI1891
I473100
sI1892
I376372
sI1893
I489490
sI1894
I235540
sI1895
I432150
sI1896
I70660
sI1897
I497690
sI1898
I473120
sI1899
I284710
sI1900
I317480
sI1901
I317490
sI1902
I374840
sI1903
I489530
sI1904
I358460
sI1905
I350270
sI1906
I350271
sI1907
I424000
sI1908
I399430
sI1909
I22600
sI1910
I497740
sI1911
I485730
sI1912
I284750
sI1913
I497750
sI1914
I391260
sI1915
I522333
sI1916
I522334
sI1917
I522335
sI1918
I497760
sI1919
I284770
sI1920
I235620
sI1921
I22630
sI1922
I22631
sI1923
I22632
sI1924
I22633
sI1925
I456810
sI1926
I489580
sI1927
I317550
sI1928
I514160
sI1929
I284790
sI1930
I514170
sI1931
I383100
sI1932
I289130
sI1933
I211070
sI1934
I448640
sI1935
I514180
sI1936
I301190
sI1937
I284810
sI1938
I235660
sI1939
I391310
sI1940
I465060
sI1941
I465070
sI1942
I440500
sI1943
I497850
sI1944
I391360
sI1945
I362870
sI1946
I391370
sI1947
I383180
sI1948
I448720
sI1949
I481490
sI1950
I211720
sI1951
I415960
sI1952
I284890
sI1953
I476490
sI1954
I375010
sI1955
I440550
sI1956
I497910
sI1957
I297000
sI1958
I391420
sI1959
I334080
sI1960
I407810
sI1961
I335190
sI1962
I448780
sI1963
I514320
sI1964
I448790
sI1965
I407940
sI1966
I350490
sI1967
I342300
sI1968
I276770
sI1969
I383270
sI1970
I47400
sI1971
I394290
sI1972
I448820
sI1973
I399670
sI1974
I465210
sI1975
I293180
sI1976
I497990
sI1977
I413410
sI1978
I344740
sI1979
I473430
sI1980
I375130
sI1981
I358750
sI1982
I342380
sI1983
I375160
sI1984
I235900
sI1985
I203140
sI1986
I372020
sI1987
I473480
sI1988
I347470
sI1989
I252310
sI1990
I203160
sI1991
I440730
sI1992
I375200
sI1993
I465320
sI1994
I245490
sI1995
I358830
sI1996
I468040
sI1997
I498110
sI1998
I367040
sI1999
I457120
sI2000
I31170
sI2001
I433910
sI2002
I334280
sI2003
I31180
sI2004
I31190
sI2005
I399831
sI2006
I473560
sI2007
I399833
sI2008
I399834
sI2009
I399836
sI2010
I31200
sI2011
I326120
sI2012
I31210
sI2013
I457201
sI2014
I489974
sI2015
I40703
sI2016
I395690
sI2017
I489990
sI2018
I448940
sI2019
I278460
sI2020
I416270
sI2021
I522770
sI2022
I522771
sI2023
I522772
sI2024
I522773
sI2025
I522774
sI2026
I522775
sI2027
I522776
sI2028
I522777
sI2029
I522778
sI2030
I522779
sI2031
I383520
sI2032
I498210
sI2033
I408100
sI2034
I408101
sI2035
I408102
sI2036
I522791
sI2037
I522792
sI2038
I522793
sI2039
I522794
sI2040
I522795
sI2041
I522796
sI2042
I522797
sI2043
I522798
sI2044
I522799
sI2045
I522800
sI2046
I522801
sI2047
I416310
sI2048
I522810
sI2049
I522811
sI2050
I522812
sI2051
I522813
sI2052
I522814
sI2053
I522815
sI2054
I522816
sI2055
I522817
sI2056
I522818
sI2057
I522819
sI2058
I522820
sI2059
I465480
sI2060
I498250
sI2061
I341090
sI2062
I522830
sI2063
I47700
sI2064
I274190
sI2065
I522840
sI2066
I522841
sI2067
I522842
sI2068
I522843
sI2069
I342620
sI2070
I522845
sI2071
I522846
sI2072
I522847
sI2073
I522849
sI2074
I522850
sI2075
I522851
sI2076
I490090
sI2077
I522860
sI2078
I522861
sI2079
I522862
sI2080
I522863
sI2081
I522864
sI2082
I522865
sI2083
I522866
sI2084
I522867
sI2085
I522868
sI2086
I522869
sI2087
I522870
sI2088
I522871
sI2089
I342650
sI2090
I244160
sI2091
I473730
sI2092
I514700
sI2093
I301710
sI2094
I211600
sI2095
I318100
sI2096
I15000
sI2097
I6810
sI2098
I252590
sI2099
I449200
sI2100
I309940
sI2101
I372510
sI2102
I6840
sI2103
I6850
sI2104
I6860
sI2105
I408270
sI2106
I6870
sI2107
I324730
sI2108
I6880
sI2109
I449250
sI2110
I309991
sI2111
I285420
sI2112
I383730
sI2113
I6900
sI2114
I6910
sI2115
I383750
sI2116
I499500
sI2117
I318220
sI2118
I15120
sI2119
I432600
sI2120
I47890
sI2121
I47898
sI2122
I238370
sI2123
I211740
sI2124
I326430
sI2125
I326431
sI2126
I418950
sI2127
I408360
sI2128
I393010
sI2129
I47920
sI2130
I359220
sI2131
I47930
sI2132
I310080
sI2133
I358880
sI2134
I15170
sI2135
I6980
sI2136
I490310
sI2137
I359250
sI2138
I7000
sI2139
I403940
sI2140
I506720
sI2141
I416610
sI2142
I318310
sI2143
I433000
sI2144
I301930
sI2145
I7020
sI2146
I465780
sI2147
I334710
sI2148
I408440
sI2149
I318330
sI2150
I424830
sI2151
I498560
sI2152
I499520
sI2153
I391660
sI2154
I429890
sI2155
I359310
sI2156
I526830
sI2157
I269210
sI2158
I203680
sI2159
I261030
sI2160
I490410
sI2161
I490411
sI2162
I490412
sI2163
I351150
sI2164
I482224
sI2165
I334770
sI2166
I334771
sI2167
I334772
sI2168
I402590
sI2169
I359350
sI2170
I228280
sI2171
I383930
sI2172
I334780
sI2173
I334781
sI2174
I334782
sI2175
I394400
sI2176
I256502
sI2177
I7110
sI2178
I334791
sI2179
I334792
sI2180
I277450
sI2181
I457680
sI2182
I277460
sI2183
I277470
sI2184
I434780
sI2185
I465890
sI2186
I498660
sI2187
I349350
sI2188
I400360
sI2189
I457710
sI2190
I277490
sI2191
I424950
sI2192
I291050
sI2193
I277500
sI2194
I384000
sI2195
I449540
sI2196
I277510
sI2197
I304300
sI2198
I15370
sI2199
I304301
sI2200
I277520
sI2201
I269330
sI2202
I416790
sI2203
I236570
sI2204
I293920
sI2205
I277540
sI2206
I274270
sI2207
I203830
sI2208
I277560
sI2209
I427190
sI2210
I398520
sI2211
I457810
sI2212
I433241
sI2213
I433242
sI2214
I457820
sI2215
I446310
sI2216
I482410
sI2217
I399890
sI2218
I457840
sI2219
I457841
sI2220
I457842
sI2221
I482420
sI2222
I312510
sI2223
I474230
sI2224
I327530
sI2225
I359550
sI2226
I509120
sI2227
I294020
sI2228
I449680
sI2229
I72850
sI2230
I457880
sI2231
I42180
sI2232
I408730
sI2233
I507040
sI2234
I466800
sI2235
I515240
sI2236
I326840
sI2237
I348020
sI2238
I12520
sI2239
I322080
sI2240
I408770
sI2241
I400580
sI2242
I477730
sI2243
I446330
sI2244
I498910
sI2245
I423120
sI2246
I384226
sI2247
I351460
sI2248
I522790
sI2249
I335080
sI2250
I305490
sI2251
I302320
sI2252
I228600
sI2253
I228601
sI2254
I301610
sI2255
I351490
sI2256
I498950
sI2257
I498960
sI2258
I247000
sI2259
I310560
sI2260
I31280
sI2261
I326950
sI2262
I427006
sI2263
I343360
sI2264
I335170
sI2265
I490820
sI2266
I498230
sI2267
I73030
sI2268
I73031
sI2269
I73033
sI2270
I343370
sI2271
I73035
sI2272
I73036
sI2273
I73037
sI2274
I73039
sI2275
I294230
sI2276
I236890
sI2277
I433500
sI2278
I31290
sI2279
I343390
sI2280
I335200
sI2281
I458640
sI2282
I73058
sI2283
I388420
sI2284
I391740
sI2285
I40300
sI2286
I1256
sI2287
I335220
sI2288
I416320
sI2289
I359810
sI2290
I331670
sI2291
I105000
sI2292
I376200
sI2293
I73097
sI2294
I73098
sI2295
I343440
sI2296
I204180
sI2297
I318870
sI2298
I318871
sI2299
I318872
sI2300
I302490
sI2301
I73115
sI2302
I499100
sI2303
I73119
sI2304
I499110
sI2305
I458800
sI2306
I466350
sI2307
I499120
sI2308
I301640
sI2309
I503710
sI2310
I466360
sI2311
I499130
sI2312
I490940
sI2313
I368061
sI2314
I425410
sI2315
I294340
sI2316
I40390
sI2317
I40391
sI2318
I40392
sI2319
I40393
sI2320
I417230
sI2321
I450000
sI2322
I450001
sI2323
I481870
sI2324
I499160
sI2325
I520100
sI2326
I269790
sI2327
I454550
sI2328
I490980
sI2329
I208806
sI2330
I441830
sI2331
I351720
sI2332
I520103
sI2333
I520104
sI2334
I515570
sI2335
I507380
sI2336
I7670
sI2337
I520105
sI2338
I491000
sI2339
I498260
sI2340
I520106
sI2341
I466430
sI2342
I499200
sI2343
I450050
sI2344
I520107
sI2345
I261640
sI2346
I520108
sI2347
I204300
sI2348
I520109
sI2349
I228880
sI2350
I204305
sI2351
I204306
sI2352
I204307
sI2353
I204308
sI2354
I208814
sI2355
I204311
sI2356
I204312
sI2357
I204314
sI2358
I204315
sI2359
I220700
sI2360
I204317
sI2361
I204318
sI2362
I204319
sI2363
I450080
sI2364
I478990
sI2365
I319011
sI2366
I319014
sI2367
I319015
sI2368
I319016
sI2369
I383580
sI2370
I319018
sI2371
I523820
sI2372
I523821
sI2373
I433710
sI2374
I376370
sI2375
I376371
sI2376
I327220
sI2377
I498270
sI2378
I65080
sI2379
I368190
sI2380
I523840
sI2381
I310850
sI2382
I220740
sI2383
I425542
sI2384
I425544
sI2385
I220760
sI2386
I222480
sI2387
I409190
sI2388
I409191
sI2389
I409192
sI2390
I360380
sI2391
I409194
sI2392
I220780
sI2393
I409200
sI2394
I409201
sI2395
I409202
sI2396
I409203
sI2397
I409204
sI2398
I451442
sI2399
I474750
sI2400
I220801
sI2401
I220802
sI2402
I220803
sI2403
I220804
sI2404
I220805
sI2405
I220806
sI2406
I220807
sI2407
I220809
sI2408
I384650
sI2409
I220811
sI2410
I220812
sI2411
I220813
sI2412
I409240
sI2413
I409241
sI2414
I360090
sI2415
I499360
sI2416
I409250
sI2417
I409251
sI2418
I409252
sI2419
I409253
sI2420
I409255
sI2421
I409256
sI2422
I409257
sI2423
I482990
sI2424
I433840
sI2425
I360114
sI2426
I360115
sI2427
I253650
sI2428
I488930
sI2429
I286670
sI2430
I204304
sI2431
I515800
sI2432
I397980
sI2433
I458470
sI2434
I458480
sI2435
I329000
sI2436
I524020
sI2437
I270070
sI2438
I487380
sI2439
I40700
sI2440
I528341
sI2441
I352000
sI2442
I461440
sI2443
I520150
sI2444
I230700
sI2445
I352010
sI2446
I261900
sI2447
I371330
sI2448
I40720
sI2449
I466710
sI2450
I491300
sI2451
I401190
sI2452
I491310
sI2453
I474930
sI2454
I8000
sI2455
I417610
sI2456
I491340
sI2457
I430050
sI2458
I417620
sI2459
I327510
sI2460
I466780
sI2461
I417630
sI2462
I327520
sI2463
I6800
sI2464
I466790
sI2465
I417640
sI2466
I286570
sI2467
I221040
sI2468
I323560
sI2469
I368500
sI2470
I443710
sI2471
I343930
sI2472
I376700
sI2473
I221162
sI2474
I466820
sI2475
I327560
sI2476
I225260
sI2477
I8080
sI2478
I35480
sI2479
I380910
sI2480
I466840
sI2481
I232090
sI2482
I450470
sI2483
I466870
sI2484
I409530
sI2485
I204731
sI2486
I204732
sI2487
I435530
sI2488
I204734
sI2489
I450500
sI2490
I307190
sI2491
I262142
sI2492
I466890
sI2493
I8140
sI2494
I368590
sI2495
I286671
sI2496
I311250
sI2497
I316750
sI2498
I409560
sI2499
I352220
sI2500
I450530
sI2501
I483300
sI2502
I221160
sI2503
I221161
sI2504
I221164
sI2505
I221165
sI2506
I221166
sI2507
I221167
sI2508
I221168
sI2509
I458740
sI2510
I458750
sI2511
I491510
sI2512
I516090
sI2513
I262141
sI2514
I8190
s.