(lp1
(lp2
I0
aI1
aI2
aI3
aI4
aI5
aI6
aI7
aI8
aI9
aI10
aI11
aI12
aI13
aa(lp3
I14
aI15
aI16
aI17
aI18
aI19
aI20
aI21
aI22
aI23
aa(lp4
I24
aI25
aI26
aI27
aI28
aI29
aI30
aI31
aI32
aI33
aI34
aI35
aI36
aa(lp5
I37
aI38
aI39
aI40
aI41
aI42
aI43
aI44
aI45
aI46
aa(lp6
I47
aI48
aI49
aI50
aI51
aI52
aI53
aI54
aI55
aI56
aI57
aa(lp7
I58
aI59
aI60
aI61
aI62
aI63
aI64
aI65
aI66
aa(lp8
I67
aI68
aI69
aI70
aa(lp9
I71
aI72
aI73
aa(lp10
I74
aa(lp11
I75
aI76
aI77
aa(lp12
I78
aI79
aI80
aI81
aI82
aI83
aI84
aI85
aI86
aI87
aI88
aI89
aI90
aa(lp13
I91
aI92
aa(lp14
I93
aI94
aa(lp15
I95
aI96
aI97
aI98
aI99
aI100
aI101
aI102
aI103
aI104
aI105
aI106
aI107
aI108
aI109
aI110
aI111
aI112
aI113
aI114
aI115
aI116
aI117
aI118
aI119
aI120
aI121
aI122
aI123
aI124
aI125
aI126
aI127
aI128
aI129
aI130
aI131
aI132
aI133
aI134
aI135
aI136
aI137
aI138
aI139
aI140
aI141
aI142
aI143
aI144
aI145
aI146
aa(lp16
I147
aI148
aa(lp17
I149
aI150
aI151
aI152
aI153
aa(lp18
I154
aI155
aI156
aI157
aI158
aI159
aI160
aI161
aI162
aI163
aI164
aI165
aI166
aI167
aa(lp19
I168
aI169
aI170
aI171
aI172
aI173
aI174
aI175
aI176
aI177
aI178
aa(lp20
I179
aI180
aI181
aI182
aI183
aI184
aI185
aI186
aI187
aI188
aI189
aI190
aa(lp21
I191
aI192
aI193
aI194
aI195
aI196
aI197
aI198
aI199
aI200
aI201
aI202
aI203
aI204
aa(lp22
I205
aI206
aI207
aI208
aI209
aI210
aI211
aI212
aI213
aI214
aI215
aI216
aa(lp23
I205
aI212
aI214
aI213
aI209
aI215
aI216
aI210
aI207
aI211
aI208
aa(lp24
I217
aI218
aI219
aI220
aa(lp25
I221
aI222
aa(lp26
I223
aI224
aa(lp27
I225
aI226
aa(lp28
I227
aI228
aa(lp29
I229
aI230
aI231
aI232
aI233
aI234
aa(lp30
I235
aI236
aa(lp31
I237
aI235
aI238
aI236
aI239
aa(lp32
I240
aI241
aI242
aa(lp33
I243
aI244
aI245
aI246
aI247
aI248
aI249
aI250
aI251
aI252
aI253
aI254
aI255
aI256
aI257
aI258
aI259
aI260
aI261
aI262
aI263
aI264
aI265
aI266
aI267
aI268
aI269
aI270
aI271
aI272
aI273
aI274
aI275
aI276
aI277
aI278
aa(lp34
I279
aI280
aI281
aI282
aa(lp35
I283
aI284
aI285
aI286
aI287
aI288
aI289
aI290
aI291
aI292
aI293
aI294
aI295
aI296
aI297
aI298
aI299
aI300
aI301
aI302
aI303
aa(lp36
I304
aI305
aa(lp37
I306
aI307
aI308
aa(lp38
I309
aa(lp39
I310
aI311
aI312
aI313
aI314
aI315
aI316
aI317
aa(lp40
I311
aI312
aI313
aI314
aI315
aI316
aI317
aa(lp41
I318
aI319
aI320
aI321
aI322
aI323
aI324
aI325
aI326
aI327
aI328
aI329
aI330
aa(lp42
I331
aI332
aa(lp43
I333
aI334
aI335
aI336
aI337
aI338
aI339
aI340
aI341
aI342
aI343
aI344
aa(lp44
I337
aI338
aI339
aI340
aI341
aI342
aI343
aI344
aa(lp45
I345
aa(lp46
I346
aI347
aI348
aa(lp47
I349
aI350
aa(lp48
I351
aI352
aI353
aa(lp49
I354
aI355
aa(lp50
I356
aI357
aa(lp51
I358
aI359
aa(lp52
I360
aI361
aa(lp53
I362
aI363
aa(lp54
I364
aI365
aa(lp55
I366
aI367
aa(lp56
I368
aI369
aa(lp57
I370
aa(lp58
I371
aI372
aI373
aI374
aI375
aI376
aI377
aI378
aa(lp59
I379
aI380
aa(lp60
I372
aI374
aa(lp61
I381
aI382
aa(lp62
I383
aI384
aa(lp63
I385
aI386
aa(lp64
I387
aI388
aI389
aI390
aI391
aI392
aI393
aI394
aI395
aI396
aa(lp65
I397
aI398
aI399
aI400
aI401
aI402
aI403
aI404
aI405
aI406
aI407
aa(lp66
I408
aI409
aI410
aI411
aI412
aI413
aI414
aI415
aI416
aI417
aI418
aI419
aa(lp67
I420
aI421
aI422
aI423
aI424
aI425
aI426
aI427
aI428
aI429
aa(lp68
I430
aI431
aI432
aI433
aI434
aI435
aI436
aI437
aI438
aI439
aI440
aI441
aI442
aa(lp69
I443
aI444
aI445
aI446
aI447
aI448
aI449
aI450
aI451
aI452
aI453
aI454
aI455
aI456
aa(lp70
I457
aI458
aI459
aI460
aI461
aI462
aI463
aI464
aI465
aI466
aI467
aI468
aa(lp71
I469
aI470
aI471
aI472
aI473
aI474
aI475
aI476
aI477
aI478
aI479
aa(lp72
I480
aI481
aI482
aI483
aI484
aI485
aI486
aI487
aI488
aa(lp73
I489
aI490
aI491
aI492
aI493
aI494
aI495
aI496
aI497
aI498
aI499
aI500
aa(lp74
I501
aI502
aI503
aa(lp75
I504
aI505
aa(lp76
I506
aI507
aI508
aI368
aI509
aa(lp77
I510
aI511
aI512
aa(lp78
I513
aI514
aa(lp79
I515
aI516
aI517
aI518
aI519
aI520
aa(lp80
I521
aI522
aI523
aI524
aa(lp81
I525
aI526
aa(lp82
I525
aI527
aI528
aI529
aI530
aI531
aI532
aI526
aa(lp83
I533
aI534
aI535
aa(lp84
I536
aI537
aa(lp85
I538
aI539
aI540
aI541
aI542
aa(lp86
I543
aI544
aI545
aI546
aI547
aI548
aI549
aI550
aa(lp87
I551
aI552
aI553
aI554
aa(lp88
I555
aI556
aa(lp89
I557
aI558
aa(lp90
I559
aI560
aa(lp91
a(lp92
I561
aa(lp93
I561
aa(lp94
I562
aI563
aa(lp95
I564
aI565
aa(lp96
I566
aa(lp97
I567
aI568
aa(lp98
I569
aI570
aI571
aI572
aa(lp99
I573
aa(lp100
I574
aI575
aI576
aI577
aa(lp101
I578
aa(lp102
I579
aI580
aa(lp103
I581
aI582
aI583
aI584
aa(lp104
I585
aI586
aa(lp105
I587
aa(lp106
I588
aI589
aa(lp107
I590
aI591
aa(lp108
I592
aI593
aa(lp109
I594
aI595
aa(lp110
I596
aI597
aI598
aI599
aa(lp111
I600
aI601
aa(lp112
I602
aI603
aa(lp113
I604
aI605
aa(lp114
I606
aI607
aa(lp115
I608
aI609
aI610
aa(lp116
I611
aI612
aa(lp117
I613
aI614
aa(lp118
I615
aI616
aa(lp119
I617
aI618
aI619
aa(lp120
I620
aI621
aa(lp121
I622
aI623
aa(lp122
I624
aa(lp123
I625
aI626
aa(lp124
I627
aI628
aI629
aa(lp125
I630
aI631
aa(lp126
I632
aI633
aa(lp127
I634
aI635
aa(lp128
I636
aa(lp129
I637
aa(lp130
I638
aI639
aI640
aI641
aa(lp131
I642
aI643
aa(lp132
I644
aI645
aI646
aa(lp133
I647
aI648
aI649
aI650
aa(lp134
I651
aI652
aI653
aa(lp135
I654
aI655
aa(lp136
I656
aI657
aa(lp137
I658
aa(lp138
I659
aa(lp139
I660
aI661
aI662
aa(lp140
I663
aI664
aa(lp141
I665
aI666
aa(lp142
I667
aI668
aa(lp143
I669
aI670
aI671
aa(lp144
I672
aI673
aa(lp145
I608
aI609
aI610
aI674
aa(lp146
I675
aa(lp147
I676
aI677
aI678
aa(lp148
I679
aI680
aa(lp149
I681
aI682
aI683
aa(lp150
I684
aI685
aa(lp151
I686
aI687
aa(lp152
I688
aI689
aa(lp153
I690
aI691
aa(lp154
I692
aI693
aa(lp155
I694
aI695
aa(lp156
I696
aa(lp157
I697
aI698
ag157
aI699
ag157
aI700
ag157
aI701
ag157
aI702
ag157
aI703
aI704
aI705
aI706
aI707
aI708
aI709
aa(lp158
I145
aI561
aa(lp159
I710
aI711
aa(lp160
I712
aI713
aI714
aI715
aI716
aI717
aI718
aa(lp161
I719
aI720
aa(lp162
I721
aI722
aa(lp163
I723
aI306
aI724
aI725
aI726
aI727
aI728
aI721
aI729
aI730
aI731
aI732
aI733
aI734
aI735
aI736
aI737
aI738
aI739
aI740
aI741
aI307
aI742
aI743
aI744
aI745
aI746
aI747
aI748
aI749
aI750
aI751
aI752
aa(lp164
I753
aI754
aa(lp165
I728
aI755
aa(lp166
I306
aI724
aI725
aI726
aI727
aI756
aI307
aI742
aI743
aI744
aI745
aI308
aa(lp167
I722
aa(lp168
I757
aI758
aa(lp169
I759
aI760
aI761
aa(lp170
I762
aI763
aa(lp171
I761
aI764
aa(lp172
I765
aI766
aa(lp173
I767
aI768
aI769
aI770
aI771
aa(lp174
I772
aI773
aa(lp175
I774
aa(lp176
I775
aa(lp177
I776
aI777
aI778
aa(lp178
I779
aI780
aI781
aI782
aI783
aa(lp179
I784
aI785
aI786
aI787
aI788
aa(lp180
I789
aI790
aa(lp181
I791
aI792
aa(lp182
I791
aI792
aa(lp183
I793
aI794
aI795
aI796
aI797
aa(lp184
I798
aI799
aa(lp185
I800
aI801
aI802
aa(lp186
I803
aI804
aI805
aI806
aI807
aa(lp187
I360
aI808
aI809
aI810
aa(lp188
I346
aI347
aa(lp189
I800
aI811
aI812
aI813
aI814
aI660
aI815
aI372
aI661
aI374
aI801
aI375
aI816
aI817
aI802
aI376
aI377
aI818
aI819
aI378
aI820
aI821
aa(lp190
I822
aI823
aI824
aa(lp191
I825
aI826
aa(lp192
I827
aa(lp193
I828
aI829
aa(lp194
I830
aI831
aI832
aa(lp195
I833
aI834
aI835
aa(lp196
I836
aI837
aa(lp197
I838
aa(lp198
I839
aI840
aa(lp199
I841
aa(lp200
I842
aI843
aa(lp201
I844
aa(lp202
I845
aI846
aI847
aa(lp203
I848
aI849
aa(lp204
I850
aI851
aI852
aa(lp205
I853
aI854
aa(lp206
I855
aI561
aa(lp207
I856
aa(lp208
I857
aI858
aI859
aI860
aa(lp209
I356
aa(lp210
I861
aI862
aa(lp211
I863
aI864
aa(lp212
I865
aI866
aI867
aa(lp213
I868
aI869
aI870
aI871
aa(lp214
I872
aI873
aI874
aa(lp215
I237
aI235
aa(lp216
I875
aI876
aI877
aI878
aa(lp217
I877
aI878
aa(lp218
I506
aI546
aI549
aI511
aI380
aI879
aa(lp219
I880
aI638
aI881
aa(lp220
I882
aI883
aa(lp221
I884
aI885
aI886
aa(lp222
I887
aI888
aI889
aI890
aI891
aa(lp223
I892
aI893
aa(lp224
I596
aI894
aI895
aa(lp225
I896
aI897
aI898
aI899
aa(lp226
I900
aI901
aa(lp227
I902
aI903
aI904
aI905
aI906
aa(lp228
I907
aI908
aI909
ag228
aI910
ag228
aI911
ag228
aI912
aI913
aI914
aI915
aI916
aI917
aI918
aa(lp229
I95
aI99
aI146
aa(lp230
I919
aI920
aI921
aI922
aI923
aI924
aa(lp231
I925
aI926
aI927
aI928
aa(lp232
I929
aI930
aI931
aI932
aI933
aI934
aI935
aa(lp233
I936
aI937
aa(lp234
I938
aI939
aI940
aI941
aI942
aI943
aI944
aI945
aI946
aI947
aI948
aI949
aI950
aI951
aa(lp235
I952
aI953
aI954
aI955
aI956
aa(lp236
I957
aI958
aI959
aa(lp237
I960
aI961
aI962
aI963
aI964
aa(lp238
I965
aI966
aI967
aI968
aa(lp239
I969
aa(lp240
I622
aI623
aI970
aa(lp241
I792
aa(lp242
I971
aI972
aa(lp243
I791
aa(lp244
I973
aI974
aa(lp245
I975
aI839
aI976
aa(lp246
I977
aI978
aa(lp247
I976
aI979
aa(lp248
I980
aa(lp249
I981
aI982
aI983
aI984
aI985
aI986
aI987
aI988
aI989
aa(lp250
I561
aa(lp251
I990
aI991
aa(lp252
I992
aI993
aI994
aa(lp253
I995
aI996
aa(lp254
I997
aI998
aI999
aI1000
aa(lp255
I1001
aI1002
aa(lp256
I1003
aa(lp257
I813
aI372
aI375
aI816
aa(lp258
I1004
aI1005
aI1006
aa(lp259
I1007
aI1008
aI1009
aa(lp260
a(lp261
I1010
aI1011
aI1012
aI1013
aa(lp262
I1014
aI1015
aI1016
aa(lp263
I1017
aI1014
aI1015
aI1016
aa(lp264
I1010
aI1011
aa(lp265
I1012
aI1013
aa(lp266
I1018
aI1019
aa(lp267
I1020
aI1021
aI1022
aI1023
aa(lp268
I941
aI942
aI947
aI951
aa(lp269
I1024
aI237
aI979
aa(lp270
I1025
aI1026
aa(lp271
I1027
aa(lp272
I1028
aI1029
aa(lp273
I1030
aI1031
aI1032
aa(lp274
I1033
aI1034
aa(lp275
I1035
aI1036
aa(lp276
I1037
aI1038
aa(lp277
I1039
aI1040
aa(lp278
I800
aI801
aI802
aI821
aa(lp279
I237
aI238
aI1041
aI979
aa(lp280
I841
aI1042
aI1027
aI1041
aI979
aa(lp281
I843
aI841
aI238
aI1041
aa(lp282
I839
aI976
aI841
aI1027
aa(lp283
I1043
aI1044
aa(lp284
I1024
aI238
aa(lp285
I1045
aI1046
aa(lp286
I1047
aI1048
aI1049
aa(lp287
I1050
aa(lp288
I1051
aI1052
aI1053
aI1054
aa(lp289
I1055
aI1056
aa(lp290
I1057
aa(lp291
I1058
aI1059
aa(lp292
I1060
aI1061
aa(lp293
I1062
aI1063
aI1064
aa(lp294
I1065
aI856
aa(lp295
I1066
aI1067
aI1068
aI1069
aI1070
aI1071
aI1072
aI1073
aI1074
aa(lp296
I1075
ag296
aI1076
ag296
aI1077
ag296
aI1078
ag296
aI1079
ag296
aI1080
ag296
ag296
aI1081
ag296
aa(lp297
I1082
aI1083
aa(lp298
I1084
aI1085
aI1086
aI1087
aI1088
aI1089
aI1090
aI1091
aI1092
aI1093
aI1094
aI1095
aI1096
aI1097
aI1098
aI1099
aI1100
aI1101
aI1102
aI1103
aI1104
aI1105
aI1106
aI1107
aI1108
aI1109
aI1110
aI1111
aI1112
aI1113
aI1114
aI1115
aI1116
aI1117
aI1118
aI1119
aI1120
aI1121
aI1122
aI1123
aI1124
aI1125
aI1126
aI1127
aI1128
aI1129
aI1130
aI1131
aI1132
aI1133
aI1134
aI1135
aI1136
aI1137
aI1138
aI1139
aI1140
aI1141
aI1142
aI1143
aI1144
aI1145
aI1146
aI1147
aI1148
aI1149
aI1150
aI1151
aI1152
aI1153
aI1154
aI1155
aI1156
aI1157
aI1158
aI1159
aI1160
aI1161
aI1162
aI1163
aI1164
aI1165
aa(lp299
a(lp300
I1166
aI1167
aI1168
aI1169
aa(lp301
I1170
aI1171
aI1172
aI865
aI574
aI1173
aI866
aI576
aI577
aa(lp302
I1174
aI1175
aI1176
aI1177
aa(lp303
I1173
aI1174
aI1175
aI1176
aI1178
aI1179
aI1177
aI1180
aa(lp304
I1181
aI1182
aI1183
aI1184
aa(lp305
I1185
aI1186
aI1187
aI1188
aI1189
aI1190
aI1191
aI1192
aI1193
aI1194
aI1195
aI1196
aI1197
aI1198
aa(lp306
I1199
aI1200
aI1201
aI1202
aa(lp307
I1203
aa(lp308
I1204
aI1205
aa(lp309
I1181
aI1183
aa(lp310
I1206
aI611
aI1207
aI1208
aI1209
aI612
aI1210
aa(lp311
I1211
aI1212
aI1213
aI1214
aI1215
aI1216
aI1217
aa(lp312
I1182
aI1184
aa(lp313
I1218
aI1219
aI1220
aa(lp314
I1221
aI1222
aa(lp315
I1223
aI1224
aI1225
aI1226
aI1227
aI1228
aI1229
aI1230
aI1231
aa(lp316
I1232
aI1233
aI1234
aI1235
aI1236
aI1237
aI1238
aI1239
aI1240
aI1241
aI1242
aa(lp317
I814
aI661
aI1243
aa(lp318
I1244
aI1224
aI1245
aa(lp319
I692
aI1223
aI1224
aI1225
aI1226
aI693
aI1227
aI1245
aI1228
aI1230
aI1246
aa(lp320
I811
aI813
aI815
aa(lp321
I817
aI818
aI819
aI820
aI821
aa(lp322
I812
aI815
aI661
aI1247
aI816
aI1243
aI820
aI821
aa(lp323
I1248
aI1060
aI1249
aa(lp324
I1250
aI1251
aa(lp325
I1252
aI1253
aI375
aI802
aI377
aa(lp326
I674
aa(lp327
I1254
aI1255
aa(lp328
I1256
aI1257
aI1258
aa(lp329
I1259
aI1260
aa(lp330
I1261
aI1262
aa(lp331
I1263
aI1264
aI557
aI1265
aa(lp332
I1266
aI1267
aI1268
aI1269
aI1270
aI1271
aI1272
aa(lp333
I1273
aI1274
aI1275
aa(lp334
I1276
aI1277
aI1278
aI1279
aI1280
aI1281
aI1282
aI1283
aI1284
aI1285
aI1286
aI1287
aI1288
aI1289
aI1290
aI1291
aI1292
aI1293
aI1294
aI1295
aI1296
aI1297
aI1298
aI1299
aI1300
aI1301
aI1302
aI1303
aI1304
aI1305
aI1306
aI1307
aI1308
aa(lp335
I1309
aI1310
aI1311
aa(lp336
I1312
aI1309
aI1310
aI1311
aa(lp337
I632
aI1313
aI1314
aI1315
aI1316
aI1317
aI1318
aI1319
aI1320
aI1321
aI1322
aI1323
aI1324
aI633
aa(lp338
I1313
aI1314
aI1315
aI1316
aI1317
aI1318
aI1319
aI1320
aI1321
aI1322
aI1323
aI1324
aa(lp339
I1325
aa(lp340
I1326
aI1327
aI1328
aI1329
aa(lp341
I1330
aI1331
aI1332
aI1326
aI1327
aa(lp342
I1333
aI1334
aI1256
aI1335
aI328
aI827
aI1336
aI1337
aa(lp343
I1338
aI1339
aI1340
aa(lp344
I1341
aI1342
aI1343
aa(lp345
I1344
aI1345
aa(lp346
I1346
aI1347
aa(lp347
I1348
aI1349
aI1350
aI1351
aI1352
aI1353
aI1354
aa(lp348
I1348
aI1349
aI1350
aI1351
aI1352
aI1353
aI1354
aa(lp349
I1352
aI1353
aa(lp350
I1348
aI1349
aI1350
aa(lp351
I1355
aI1356
aa(lp352
I1357
aI1358
aI1359
aI1360
aa(lp353
I1361
aI1362
aI1363
aI1364
aI1365
aI1366
aI1367
aI1368
aa(lp354
I1369
aI1370
aI1371
aI1372
aI1373
aI1374
aI1375
aI1376
aa(lp355
I1377
aI1378
aI1379
aI1380
aI1381
aa(lp356
I1382
aI1383
aI1384
aa(lp357
I1065
aa(lp358
I1385
aI1386
aa(lp359
I1387
aI1388
aI1389
aI1390
aI1391
aI1392
aa(lp360
I1393
aI1394
aa(lp361
I1395
aI1396
aI1397
aI1398
aa(lp362
I1399
aI1400
aI1401
aa(lp363
I1402
aI1403
aa(lp364
I1404
aI1405
aI1406
aa(lp365
I1407
aa(lp366
I1408
aI1409
aa(lp367
I1410
aI1411
aI1412
aI1413
aa(lp368
I1414
aI1415
aI1416
aI1417
aa(lp369
I1418
aI1419
aI1420
aI1421
aI1422
aI1423
aI1424
aI1425
aI1426
aI1427
aI1428
aI1429
aI1430
aI1431
aI1432
aI1433
aI1434
aI1435
aI1436
aI1437
aI1438
aI1439
aa(lp370
I1440
aI1441
aa(lp371
I1442
aI1443
aa(lp372
I561
aI331
aa(lp373
I1444
aI1445
aI1446
aI1447
aa(lp374
I1448
aI1449
aI1450
aI1451
aI1452
aI1453
aI1454
aI1455
aI1456
aI1457
aI1458
aI1459
aI1460
aI1461
aI1462
aI1463
aI1464
aI1465
aI1466
aI1467
aI1468
aI1469
aI1470
aI1471
aI1472
aI1473
aI1462
aI1474
aI1475
aI1476
aI1477
aI1478
aI1479
aa(lp375
I1480
aI1481
aI1482
aa(lp376
I1483
aI1484
aI1485
aI1486
aI1487
aI1488
aa(lp377
I1489
aI1490
aI1491
aI1492
aa(lp378
I1493
aI1494
aI1495
aa(lp379
I1496
aI1497
aa(lp380
I1498
aI1499
aI1500
aI1501
aa(lp381
I1502
aI1503
aI1504
aI1505
aa(lp382
I894
aI1506
aI1507
aI1508
aa(lp383
I1509
aI1510
aI1511
aI1512
aa(lp384
I1513
aI1514
aI1515
aa(lp385
I1516
aI1517
aI1518
aI1519
aI1520
aI1521
aI1522
aI1523
aI1524
aI1525
aI1526
aI1527
aI798
aI1528
aI1529
aI1530
aI1531
aI1532
aI1533
aI1534
aI1535
aI1536
aI1537
aI1538
aI1539
aI1540
aI1541
aI1542
aI1543
aI1544
aI1545
aI1546
aI1547
aI799
aI1548
aI1402
aI1403
aI1549
aa(lp386
I1550
aI1551
aI1552
aa(lp387
I1553
aI1554
aI1555
aI1556
aI1557
aI1558
aI1559
aI1560
aI1561
aI1562
aa(lp388
I1559
aI1560
aa(lp389
I1557
aI1558
aa(lp390
I1525
aa(lp391
I1516
aI1517
aI1518
aI1519
aI1520
aI1521
aI1522
aI1523
aI1524
aa(lp392
I1525
aI1535
aI1540
aI1541
aa(lp393
I1540
aI1541
aa(lp394
I1526
aI798
aI1533
aI1536
aa(lp395
I1529
aI1530
aI1532
aI1538
aI1539
aa(lp396
I1527
aI1543
aI1546
aI1548
aa(lp397
I1516
aI1517
aI1521
aI1533
aI1535
aI1537
aI1544
aa(lp398
I1525
aI798
aI1528
aI1531
aI1538
aI1547
aa(lp399
I1526
aI1529
aa(lp400
I1369
aI1370
aI1372
aa(lp401
I1563
aI1564
aa(lp402
I875
aI876
aa(lp403
I1565
aI1566
aI1567
aI1568
aI1569
aI1570
aI1571
aI1572
aI1573
aI1574
aI1575
aI1576
aI1577
aI1578
aI1579
aI1580
aI1581
aI1582
aI1583
aI1584
aI1585
aI1586
aI1587
aI1588
aI1589
aI1590
aI1591
aI1592
aI1593
aI1594
aI1595
aI1596
aa(lp404
I1496
aI1497
aI1493
aI1494
aI1495
aa(lp405
I1597
aI1598
aI1599
aI1600
aI1601
aa(lp406
I1602
aI1603
aI1604
aI1605
aI1606
aI1607
aI1608
aa(lp407
I1609
aI1610
aa(lp408
I1256
aI1257
aI1258
aI827
aa(lp409
I1611
aa(lp410
I1612
aI1613
aI1614
aI1615
aI1329
aa(lp411
I1616
aI1617
aI1618
aI1619
aa(lp412
I1620
aI1621
aI1622
aa(lp413
I1599
aI1600
aI1601
aa(lp414
I1623
aI1624
aI1625
aI1626
aa(lp415
I1627
aI1628
aI1629
aI1630
aa(lp416
I1631
aI1632
aa(lp417
I1633
aI1634
aI1635
aa(lp418
I1636
aI1637
aI1638
aI1639
aI1640
aI1641
aI1642
aI1643
aI1644
aI1645
aa(lp419
I1646
aI1647
aa(lp420
I1648
aI1649
aI1650
aI1651
aa(lp421
I1652
aa(lp422
I1653
aI1654
aI1655
aa(lp423
I1656
aI1657
ag423
ag423
aI1658
ag423
ag423
aI1185
aI1659
aI1660
aa(lp424
I1661
aI1662
aa(lp425
I1663
aI1664
aI1665
aI1666
aI1667
aI1668
aI1669
aa(lp426
I133
aI145
aa(lp427
I1670
aI1671
aI1672
aa(lp428
I1673
aI1674
aI1675
aI1676
aI1677
aI1678
aI1679
aI1680
aI1681
aI1682
aI1683
aa(lp429
I1684
aa(lp430
I1685
aI1686
aI1687
aa(lp431
I1688
aI1689
aI1690
aI1691
aI1692
aI1693
aI1694
aI1695
aI1696
aI1697
aI1698
aI1699
aI1700
aI1701
aI1702
aI1703
aI1704
aI1705
aI1706
aI1707
aI1708
aI1709
aI1710
aI1711
aI1712
aI1713
aI1714
aI1715
aI1716
aI1717
aI1718
aI1719
aI1720
aI1721
aI1722
aI1723
aa(lp432
I1724
aI1725
aa(lp433
I1688
aI1689
aI1690
aI1691
aI1692
aI1693
aI1694
aI1695
aI1696
aI1697
aI1698
aI1699
aI1700
aI1701
aI1702
aI1703
aI1704
aI1705
aI1706
aI1707
aI1708
aI1709
aI1710
aI1711
aI1712
aI1713
aI1714
aI1715
aI1716
aI1717
aI1718
aI1719
aI1720
aI1721
aI1722
aa(lp434
I1726
aI1727
aI1728
aa(lp435
I1729
aI659
aa(lp436
I1730
aI1731
aa(lp437
I1612
aI1732
aI1733
aI1613
aI1616
aI1617
aI1330
aI1614
aI1331
aI1615
aI1734
aI1735
aI1736
aI1737
aI1738
aI1739
aI1740
aI1741
aI1742
aI1332
aI1618
aI1619
aI1327
aI1328
aI1329
aa(lp438
I1743
aI1744
aI1745
aa(lp439
I1746
aI1747
aI1748
aI1749
aa(lp440
I1750
aI1751
aI1752
aI1753
aa(lp441
I1754
aI1755
aI692
aI1244
aI1223
aI1224
aI1225
aI1226
aI693
aI1227
aI1245
aI1228
aI1229
aI1230
aI1246
aI1231
aa(lp442
I1422
aI1423
aI1425
aI1426
aI1427
aa(lp443
I1756
aI1757
aI1758
aI1759
aa(lp444
I1754
aI1755
aa(lp445
I1223
aI1227
aI1228
aI1230
aa(lp446
I1760
aI1761
aI1762
aI1763
aa(lp447
I1764
aI1765
aI1766
aa(lp448
I1767
aI1768
aI1769
aI1770
aI1771
aI1772
aI1773
aI1774
aI1775
aI1776
aI1777
aI1778
aI1779
aa(lp449
I1780
aI1767
aI1768
aI1769
aI980
aI1781
aI1770
aI1771
aI1772
aI1773
aI1774
aI1775
aI1776
aI1782
aI1777
aI1778
aI1779
aI1783
aa(lp450
I1784
aI1785
aI1786
aI1787
aI1788
aa(lp451
I1363
aI1364
aI1366
aI1368
aa(lp452
a(lp453
I1035
aI1789
aa(lp454
a(lp455
I844
aI1790
aI1791
aI1792
aa(lp456
I1793
aI1794
aI1795
aI1796
aa(lp457
I1797
aI1798
aa(lp458
I1236
aI1240
aI1799
aa(lp459
I1800
aI1801
aI1802
aI1803
aI1804
aI1805
aI1806
aI1807
aI1808
aI1809
aI1810
aI1811
aI1812
aa(lp460
I1218
aI1219
aI1813
aI1814
aI1815
aI1816
aa(lp461
I1817
aI1818
aI1819
aI1820
aI1821
aI1822
aI1823
aI1824
aI217
aI1825
aI1826
aI1827
aI1828
aI1829
aI1830
aI1831
aI1832
aI1833
aI1834
aI1835
aI1836
aI1837
aI1838
aI1839
aI1840
aI1841
aI1842
aI1843
aI1844
aa(lp462
I1845
aI1846
aI1847
aI1848
aI1849
aI1850
aa(lp463
I1851
aI1852
aI1853
aI1854
aI1855
aI1856
aa(lp464
I1857
aI1845
aI1846
aI1847
aI1848
aI1849
aI1850
aa(lp465
I1857
aI1851
aI1852
aI1853
aI1854
aI1855
aI1856
aa(lp466
I1858
aI1859
aI1860
aI1861
aI1862
aI1863
ag466
aI1864
ag466
aI1865
ag466
aI1866
ag466
aI1867
aa(lp467
I1868
ag467
aI1869
ag467
aI1870
aI1858
aI1871
aI1872
aI1859
aI1873
aI1860
aI1861
aI1862
aI1874
aI1863
ag467
aI1864
ag467
aI1865
ag467
aI1866
ag467
aI1875
aI1867
aI1876
aI1877
aI1878
aa(lp468
I1876
aa(lp469
I1875
aI1877
aa(lp470
I1868
ag470
aI1869
ag470
aI1871
aI1872
aI1873
aa(lp471
I1868
ag471
aI1869
ag471
aI1874
aI1878
aa(lp472
I1858
aI1859
aI1860
aI1861
aa(lp473
I319
aI323
aI325
aI326
aa(lp474
I1870
aI1874
aI1866
aa(lp475
I1879
aa(lp476
I1880
aI1881
aI1882
aa(lp477
I1883
aI1884
aa(lp478
I1885
aI1886
aa(lp479
I102
aI104
aI106
aI133
aI143
aI145
aa(lp480
I103
aI135
aI142
aI144
aa(lp481
I96
aI117
aI118
aI119
aI120
aI121
aI122
aI123
aI124
aI125
aI126
aI127
aI128
aI129
aI130
aI131
aI132
aI136
aI137
aI138
aI139
aI140
aI141
aa(lp482
I1887
aI1888
aI1889
aI1890
aI1891
aI1892
aI1893
aI1894
aI1895
aI1896
aI1897
aI1898
aI1899
aI1900
aI1901
aI1902
aI1903
aI1904
aI1905
aI1906
aI1907
aI1908
aI1909
aI1910
aI1911
aI1912
aI1913
aI1914
aI1915
aI1916
aI1917
aI1918
aI1919
aI1920
aI1921
aI1922
aI1923
aI1924
aI1925
aI1266
aI1267
aI1926
aI1927
aI1268
aI1928
aI1929
aI1930
aI1269
aI1931
aI1932
aI1933
aI1934
aI1935
aI1936
aI1270
aI1271
aI1272
aI1937
aI1938
aI1939
aI1940
aI1941
aa(lp483
I1942
aI1943
aI1944
aa(lp484
I1945
aI1946
aa(lp485
I1947
aI1948
aI1949
aI1950
aI1951
aI1952
aI1953
aI1954
aI1955
aI1956
aI1957
aa(lp486
I1602
aI1603
aI1604
aI1605
aI1606
aI1607
aI1608
aa(lp487
I1958
aI1959
aI1960
aa(lp488
I1961
aI830
aI831
aI832
aa(lp489
I728
aI1962
aI1963
aI1964
aI1965
aI1966
aI1967
aI1968
aI1969
aI1970
aI1971
aI1972
aI1973
aI1974
aI1975
aI1976
aI1977
aI1978
aI1979
aI1980
aI1981
aI1982
aI1983
aI1984
aI1985
aI1986
aI1987
aI1988
aI1989
aI755
aI1990
aI1991
aa(lp490
I1992
aI1993
aI1994
aI1995
aI1996
aa(lp491
I624
aa(lp492
I624
aa(lp493
I1997
aI1998
aa(lp494
I1999
aI2000
aa(lp495
I2001
aI2002
aI2003
aI2004
aI2005
aI2006
aI2007
aI2008
aI2009
aI2010
aI2011
aI2012
aI2013
aI2014
aI2015
aI2016
aI2017
aI2018
aI2019
aI2020
aI2021
aI2022
aI2023
aI2024
aI2025
aI2026
aI2027
aI2028
aI2029
aI2030
aa(lp496
I1408
aI2031
aI2032
aI2033
aI2034
aa(lp497
I2035
aI2036
aI2037
aI2038
aa(lp498
I2039
aI2040
aI2041
aI2042
aI1997
aI1998
aa(lp499
I2043
aI2044
aa(lp500
I2045
aI2046
aI2047
aI2048
aI2049
aI2050
aI2051
aI2052
aI2053
aI2054
aa(lp501
I2055
aI2056
aa(lp502
I2057
aI2058
aI2059
aa(lp503
I2060
aI2061
aI2062
aI2063
aI2064
aa(lp504
I2065
aI2066
aI2067
aI2068
aa(lp505
I2069
aI2070
aa(lp506
I2071
aI2072
aI2073
aI2074
aI2075
aI2076
aI2077
aI2078
aI2079
aI2080
aa(lp507
I2081
aI2082
aa(lp508
I2083
aI2084
aa(lp509
I2085
aI2086
aI2087
aa(lp510
I2088
aI2089
aI2090
aI2091
aa(lp511
I2092
aI2093
aI2094
aI2095
aI2096
aI2097
aa(lp512
I2098
aI2099
aI2100
aI2101
aI2102
aI2103
aa(lp513
a(lp514
I2104
aI2105
aI2106
aI2107
aI2108
aI2109
aI2110
aI2111
aI2112
aI2113
aI2114
aI2115
aI2116
aI2117
aI2118
aI2119
aI2120
aI2121
aI2122
aI2123
aa(lp515
g515
ag515
ag515
aI2124
aI2125
aI2126
aI2127
aI2128
aa(lp516
I2129
aI2130
aI2131
aI2132
aI2133
aa(lp517
I2134
aI2135
aI2136
aI2137
aI2138
aI2139
aI2140
aI2141
aI2142
aI2143
aI2144
aI2145
aI2146
aI2147
aI2148
aI2149
aI2150
aI2151
aI2152
aI2153
aI2154
aI2155
aI2156
aI2157
aI2158
aI2159
aI2160
aI2161
aa(lp518
I2162
aI2163
aa(lp519
I2164
aI2165
aI2166
aa(lp520
I2167
aI2168
aa(lp521
I2169
aI2170
aI2171
aI2172
aa(lp522
I2173
aI2174
aI2175
aI2176
aI2177
aI2178
aI2179
aI2180
aI2181
aI2182
aI2183
aI2184
aI2185
aI2186
aI2187
aI2188
aI2189
aI2190
aI2191
aa(lp523
I2192
aI2193
aI2194
aa(lp524
I2195
aI2196
aI2197
aI2198
aI2199
aI2200
aI2201
aa(lp525
I2202
aI2203
aI2204
aI2205
aI2206
aa(lp526
I2207
aI2208
aI2209
aa(lp527
I2210
aI2211
aa(lp528
I2212
aI2213
aa(lp529
I2214
aI2215
aa(lp530
I2216
aI2217
aI2218
aI2219
aI2220
aI2221
aa(lp531
I2222
aI2223
aa(lp532
I2195
aI2196
aI2197
aI2202
aI2203
aI2204
aI2205
aa(lp533
I2224
aI2225
aI784
aI785
aI786
aI787
aI788
aI2226
aI2227
aI1945
aI1946
aI2228
aI2229
aI2230
aI2231
aI2232
aI358
aI1203
aI2233
aI2234
aI845
aI2235
aI93
aI710
aI711
aI846
aI847
aI94
aI359
aa(lp534
I2236
aI2237
aI2238
aa(lp535
I2239
aI2240
aa(lp536
I2241
aI2242
aa(lp537
I2243
aI2244
aI2245
aI2246
aI2247
aI2248
aa(lp538
I2249
aI2250
aI2251
aa(lp539
I2252
aI659
aa(lp540
I2253
aI2254
aa(lp541
I2255
aI2256
aI2257
aI2258
aI2259
aI2260
aI2261
aI2262
aI2263
aI2264
aI2265
aI2266
aa(lp542
I839
aI2267
aa(lp543
I855
aI561
aa(lp544
I2268
aI2269
aI2270
aI566
aI2271
aI2272
aI2273
aI2274
aI2275
aI2276
aI2277
aI2278
aI2279
aI2280
aI2281
aI1636
aI2282
aI2283
aI2284
aI2285
aI2286
aI1637
aI1638
aI1639
aI1640
aI1641
aI1642
aI2287
aI1643
aI1644
aI1645
aI2288
aI2289
aI2290
aI2291
aI2292
aI2293
aI2035
aI2294
aI2295
aI2296
aI2297
aI2298
aI2299
aI2036
aI2037
aI2038
aa(lp545
I2300
aI2301
aI2302
aI2303
aa(lp546
I2304
aI2305
aa(lp547
I2306
aI2307
aa(lp548
I2308
aI2309
aI2310
aI2311
aI2312
aa(lp549
I2313
aI2314
aa(lp550
I2315
aI2316
aI2317
aa(lp551
I2318
aI2319
aI2320
aI2321
aI2322
aa(lp552
I2252
aI2323
aI2324
aI2325
aI2326
aa(lp553
I2327
aI2328
aI2329
aa(lp554
I1678
aI1679
aI1680
aI1681
aI1682
aI1683
aa(lp555
I1490
aI1510
aI1505
aa(lp556
I2330
aI2331
aI2332
aa(lp557
I2333
aI2334
aI2335
aa(lp558
I2336
aI2337
aa(lp559
I680
aI2338
aa(lp560
I2339
aI2340
aa(lp561
I2341
aI2342
aI2343
aI2344
aa(lp562
I1263
aI2345
aa(lp563
I2346
aI2347
aa(lp564
I1024
aa(lp565
I975
aI2348
aI2349
aI2249
aI842
aI2350
aI839
aI843
aI2351
aI976
aI841
aI1024
aI1042
aI237
aI235
aI1027
aI238
aI1041
aI979
aI236
aI239
aa(lp566
a(lp567
I2352
aa(lp568
I2349
aI2350
aI839
aI843
aI2351
aa(lp569
I975
aI2348
aI2249
aI842
aI976
aI1024
aa(lp570
I2353
aI2354
aI1360
aa(lp571
I2348
aI2349
aI2350
aI2351
aa(lp572
I2355
aI2356
aa(lp573
I2357
aI2358
aI2359
aI2360
aa(lp574
I2361
aI2362
aI2363
aa(lp575
I2364
aI2365
aa(lp576
I2366
aI2367
aI2368
ag576
aI2369
ag576
aa(lp577
I2370
aI2371
aI2372
aI2373
aI2374
aa(lp578
I2073
aI2075
aI2076
aI2078
aI2079
aI2080
aa(lp579
I2075
aI2076
aI2078
aI2079
aI2080
aa(lp580
I1409
aI2375
aa(lp581
I2376
aI2377
aI2378
aI2379
aI2380
aI2381
aI2382
aa(lp582
I2376
aI2377
aI2378
aI2383
aI2384
aI2379
aI2385
aI2380
aI2386
aI2387
aI2388
aI2389
aI2390
aI2391
aI2392
aI2393
aI2394
aI2395
aI2396
aI2397
aI2398
aI2381
aI2399
aI2382
aI2400
aI2401
aI2402
aI2403
aI2404
aI2405
aa(lp583
I2406
aI2407
aa(lp584
I2408
aI2409
aI2410
aa(lp585
I2411
aI2412
aI2413
aa(lp586
I2414
aI2415
aI2416
aa(lp587
I2417
aI2418
aI2419
aI2420
aI2421
aI2422
aI2423
aI2424
aa(lp588
I2425
aI2426
aa(lp589
I2427
aI2428
aa(lp590
I2429
aI2430
aI2431
aI2432
aa(lp591
I2350
aa(lp592
I2433
aI2434
aa(lp593
I2435
aI2436
aa(lp594
I1947
aI2437
aI2438
aI2439
aI2440
aI2441
aI2442
aI2443
aI2444
aI2445
aI2446
aI2447
aI2448
aI2449
aI2450
aa(lp595
I2451
aI2452
aI2453
aI2454
aI2455
aI2456
aI2457
aI2458
aI2459
aI2460
aI2461
aI2462
aa(lp596
I2463
aI2464
aI2465
aI2466
aI2467
aI2468
aI2469
aI2470
aI2471
aI2472
aI2473
aI2474
aI2462
aI2475
aI2476
aa(lp597
I1424
aI1429
aI1432
aI1434
aI1435
aI1438
aI1439
aa(lp598
I2477
aI2478
aa(lp599
I2479
aa(lp600
I2480
aI2481
aI2482
aa(lp601
I2483
aI2484
aI2485
aa(lp602
I767
aI768
aa(lp603
I977
aI978
aI585
aI586
aa(lp604
I2486
aI2487
aI2488
aa(lp605
I692
aI1244
aI693
aI1246
aa(lp606
I2489
aI2490
aa(lp607
I2491
aI2492
aI2493
aI2494
aa(lp608
I2495
aI2496
aa(lp609
I2497
aI2498
aa(lp610
I769
aI770
aa(lp611
I767
aI768
aI769
aI770
aa(lp612
I2499
aI2500
aa(lp613
I2501
aI2502
aa(lp614
I2503
aI2495
aI2504
aI656
aI2505
aI2506
aI2507
aI2508
aI2509
aI2510
aa(lp615
I976
aI2511
aa(lp616
I2512
aI2513
aI2514
aa.