(lp1
I450
aI1473
aI1474
aI1437
aI1466
aI1478
aI1482
aI1396
aI1400
aI1471
aI1472
aI1477
aI1284
aI1468
aI1225
aI1455
aI1419
aI1421
aI1433
aI1420
aI1011
aI419
aI1460
aI317
aI1379
aI1385
aI1137
aI279
aI1440
aI1441
aI658
aI355
aI1401
aI1418
aI1282
aI1399
aI1392
aI1404
aI1406
aI1407
aI1403
aI1293
aI1248
aI1409
aI1410
aI1382
aI1386
aI1356
aI1332
aI667
aI1390
aI1349
aI1373
aI1295
aI1387
aI1222
aI803
aI498
aI396
aI1372
aI972
aI1378
aI1367
aI1369
aI1371
aI1376
aI1337
aI1343
aI1368
aI1370
aI1264
aI1324
aI1268
aI1328
aI825
aI473
aI1297
aI604
aI1333
aI1336
aI1340
aI1153
aI1355
aI1161
aI567
aI1361
aI903
aI1271
aI1330
aI1350
aI1351
aI1352
aI1209
aI982
aI827
aI694
aI531
aI538
aI347
aI1005
aI1100
aI1114
aI494
aI357
aI363
aI284
aI1017
aI1002
aI754
aI536
aI359
aI416
aI251
aI923
aI953
aI869
aI622
aI507
aI298
aI304
aI166
aI1191
aI1246
aI1115
aI836
aI568
aI597
aI490
aI281
aI341
aI1339
aI539
aI850
aI1150
aI585
aI1226
aI916
aI501
aI614
aI441
aI526
aI262
aI1085
aI929
aI1275
aI676
aI406
aI413
aI305
aI215
aI974
aI653
aI533
aI346
aI1307
aI1303
aI1156
aI1259
aI1265
aI1266
aI1188
aI1190
aI1196
aI1232
aI1144
aI809
aI1290
aI1291
aI1068
aI548
aI1289
aI1288
aI1105
aI917
aI1274
aI1267
aI1047
aI1252
aI1219
aI1204
aI1207
aI936
aI763
aI801
aI461
aI1258
aI1029
aI813
aI693
aI275
aI365
aI169
aI259
aI1213
aI1231
aI879
aI977
aI611
aI297
aI93
aI1233
aI995
aI421
aI337
aI353
aI1007
aI1071
aI893
aI913
aI651
aI479
aI1247
aI505
aI1250
aI1146
aI1147
aI1021
aI560
aI1243
aI1245
aI951
aI1241
aI1215
aI1217
aI1228
aI1009
aI1206
aI1229
aI1046
aI456
aI1208
aI704
aI1216
aI1183
aI799
aI1211
aI1212
aI1189
aI650
aI1194
aI1182
aI1151
aI552
aI434
aI516
aI1052
aI384
aI1028
aI1158
aI1084
aI941
aI1104
aI1143
aI872
aI344
aI364
aI1138
aI1140
aI1141
aI1132
aI1102
aI1103
aI1130
aI1131
aI709
aI1128
aI1107
aI1116
aI1121
aI1110
aI437
aI914
aI990
aI549
aI946
aI984
aI399
aI1056
aI1053
aI1054
aI1055
aI1033
aI1040
aI1041
aI1034
aI962
aI963
aI865
aI1013
aI1024
aI853
aI949
aI1008
aI580
aI1003
aI509
aI362
aI808
aI983
aI833
aI480
aI482
aI897
aI575
aI961
aI668
aI884
aI926
aI948
aI543
aI925
aI823
aI330
aI955
aI957
aI802
aI954
aI956
aI804
aI398
aI403
aI944
aI871
aI395
aI934
aI920
aI877
aI624
aI678
aI832
aI520
aI876
aI701
aI896
aI868
aI837
aI700
aI510
aI855
aI854
aI852
aI805
aI839
aI861
aI859
aI844
aI845
aI846
aI843
aI851
aI425
aI824
aI380
aI755
aI759
aI810
aI781
aI760
aI708
aI730
aI757
aI697
aI747
aI687
aI577
aI569
aI532
aI728
aI782
aI798
aI789
aI647
aI383
aI695
aI464
aI751
aI778
aI779
aI780
aI749
aI752
aI753
aI727
aI770
aI771
aI772
aI773
aI774
aI775
aI776
aI761
aI762
aI764
aI765
aI766
aI767
aI768
aI769
aI379
aI750
aI758
aI646
aI746
aI690
aI712
aI724
aI736
aI734
aI664
aI665
aI682
aI721
aI729
aI394
aI725
aI429
aI656
aI718
aI459
aI670
aI572
aI574
aI512
aI710
aI683
aI608
aI655
aI631
aI696
aI570
aI649
aI440
aI689
aI546
aI680
aI663
aI662
aI474
aI628
aI634
aI496
aI635
aI633
aI534
aI627
aI623
aI612
aI616
aI542
aI610
aI15
aI17
aI19
aI125
aI137
aI139
aI145
aI153
aI157
aI225
aI227
aI228
aI229
aI230
aI231
aI232
aI233
aI234
aI235
aI236
aI237
aI239
aI240
aI241
aI243
aI244
aI245
aI247
aI248
aI249
aI250
aI254
aI255
aI256
aI257
aI258
aI260
aI261
aI263
aI264
aI265
aI266
aI267
aI268
aI269
aI270
aI272
aI273
aI274
aI278
aI280
aI285
aI286
aI291
aI292
aI293
aI296
aI300
aI301
aI302
aI303
aI306
aI307
aI308
aI309
aI311
aI312
aI313
aI316
aI318
aI319
aI320
aI321
aI322
aI326
aI327
aI328
aI329
aI331
aI332
aI333
aI334
aI335
aI336
aI338
aI339
aI340
aI342
aI345
aI349
aI350
aI354
aI356
aI358
aI361
aI366
aI367
aI369
aI374
aI375
aI376
aI377
aI378
aI381
aI382
aI385
aI391
aI408
aI409
aI414
aI417
aI420
aI424
aI426
aI428
aI430
aI432
aI433
aI435
aI436
aI438
aI439
aI442
aI443
aI445
aI447
aI448
aI449
aI451
aI454
aI457
aI460
aI462
aI467
aI468
aI469
aI471
aI472
aI476
aI484
aI485
aI487
aI488
aI491
aI492
aI495
aI497
aI503
aI511
aI514
aI519
aI528
aI535
aI540
aI547
aI565
aI571
aI578
aI579
aI581
aI582
aI584
aI586
aI588
aI594
a.