(lp1
V10%
p2
aV22%
p3
aV22%
p4
aV40%
p5
aV22%
p6
aV65%
p7
aV10%
p8
aV40%
p9
aV25%
p10
aV33%
p11
aV22%
p12
aV10%
p13
aV15%
p14
aV12%
p15
aV6%
p16
aV50%
p17
aV28%
p18
aV22%
p19
aV22%
p20
aV28%
p21
aV90%
p22
aV92%
p23
aV30%
p24
aV40%
p25
aV15%
p26
aV30%
p27
aV10%
p28
aV50%
p29
aV20%
p30
aV25%
p31
aV40%
p32
aV33%
p33
aV0%
p34
aV50%
p35
aV40%
p36
aV17%
p37
aV10%
p38
aV40%
p39
aV40%
p40
aV50%
p41
aV0%
p42
aV35%
p43
aV25%
p44
aV33%
p45
aV50%
p46
aV0%
p47
aV20%
p48
aV50%
p49
aV50%
p50
aV10%
p51
aV10%
p52
aV13%
p53
aV6%
p54
aV10%
p55
aV30%
p56
aV60%
p57
aV85%
p58
aV50%
p59
aV86%
p60
aV25%
p61
aV10%
p62
aV50%
p63
aV16%
p64
aV8%
p65
aV16%
p66
aV35%
p67
aV22%
p68
aV28%
p69
aV16%
p70
aV16%
p71
aV22%
p72
aV22%
p73
aV33%
p74
aV13%
p75
aV41%
p76
aV50%
p77
aV20%
p78
aV25%
p79
aV10%
p80
aV10%
p81
aV10%
p82
aV15%
p83
aV15%
p84
aV32%
p85
aV50%
p86
aV10%
p87
aV7.5%
p88
aV10%
p89
aV10%
p90
aV0%
p91
aV0%
p92
aV0%
p93
aV20%
p94
aV20%
p95
aV10%
p96
aV20%
p97
aV50%
p98
aV49%
p99
aV80%
p100
aV25%
p101
aV15%
p102
aV0%
p103
aV17%
p104
aV10%
p105
aV10%
p106
aV0%
p107
aV20%
p108
aV20%
p109
aV30%
p110
aV0%
p111
aV10%
p112
aV35%
p113
aV25%
p114
aV25%
p115
aV10%
p116
aV23%
p117
aV10%
p118
aV15%
p119
aV10%
p120
aV20%
p121
aV5%
p122
aV20%
p123
aV20%
p124
aV35%
p125
aV10%
p126
aV10%
p127
aV25%
p128
aV20%
p129
aV10%
p130
aV20%
p131
aV15%
p132
aV30%
p133
aV60%
p134
aV5%
p135
aV10%
p136
aV10%
p137
aV50%
p138
aV87%
p139
aV10%
p140
aV35%
p141
aV20%
p142
aV16%
p143
aV20%
p144
aV25%
p145
aV29%
p146
aV10%
p147
aV40%
p148
aV10%
p149
aV10%
p150
aV20%
p151
aV10%
p152
aV10%
p153
aV10%
p154
aV15%
p155
aV16%
p156
aV40%
p157
aV0%
p158
aV20%
p159
aV10%
p160
aV10%
p161
aV18%
p162
aV61%
p163
aV20%
p164
aV14%
p165
aV15%
p166
aV11%
p167
aV30%
p168
aV15%
p169
aV15%
p170
aV15%
p171
aV25%
p172
aV60%
p173
aV20%
p174
aV50%
p175
aV10%
p176
aV45%
p177
aV25%
p178
aV20%
p179
aV0%
p180
aV40%
p181
aV40%
p182
aV46%
p183
aV25%
p184
aV39%
p185
aV45%
p186
aV20%
p187
aV33%
p188
aV80%
p189
aV20%
p190
aV10%
p191
aV50%
p192
aV10%
p193
aV10%
p194
aV30%
p195
aV10%
p196
aV15%
p197
aV20%
p198
aV20%
p199
aV30%
p200
aV10%
p201
aV10%
p202
aV10%
p203
aV50%
p204
aV10%
p205
aV0%
p206
aV10%
p207
aV25%
p208
aV30%
p209
aV25%
p210
aV25%
p211
aV80%
p212
aV38%
p213
aV57%
p214
aV20%
p215
aV40%
p216
aV15%
p217
aV45%
p218
aV25%
p219
aV27%
p220
aV33%
p221
aV25%
p222
aV10%
p223
aV17%
p224
aV0%
p225
aV42%
p226
aV35%
p227
aV50%
p228
aV20%
p229
aV25%
p230
aV50%
p231
aV10%
p232
aV50%
p233
aV30%
p234
aV40%
p235
aV15%
p236
aV30%
p237
aV30%
p238
aV10%
p239
aV20%
p240
aV20%
p241
aV25%
p242
aV20%
p243
aV20%
p244
aV20%
p245
aV35%
p246
aV20%
p247
aV20%
p248
aV33%
p249
aV0%
p250
aV13%
p251
aV25%
p252
aV15%
p253
aV40%
p254
aV0%
p255
aV30%
p256
aV92%
p257
aV20%
p258
aV25%
p259
aV25%
p260
aV40%
p261
aV10%
p262
aV10%
p263
aV10%
p264
aV15%
p265
aV0%
p266
aV20%
p267
aV20%
p268
aV20%
p269
aV20%
p270
aV20%
p271
aV20%
p272
aV30%
p273
aV20%
p274
aV20%
p275
aV7%
p276
aV10%
p277
aV57%
p278
aV20%
p279
aV25%
p280
aV20%
p281
aV20%
p282
aV15%
p283
aV25%
p284
aV5%
p285
aV20%
p286
aV10%
p287
aV20%
p288
aV0%
p289
aV10%
p290
aV33%
p291
aV10%
p292
aV50%
p293
aV10%
p294
aV75%
p295
aV25%
p296
aV10%
p297
aV50%
p298
aV89%
p299
aV10%
p300
aV80%
p301
aV50%
p302
aV48%
p303
aV30%
p304
aV67%
p305
aV33%
p306
aV15%
p307
aV9%
p308
aV20%
p309
aV20%
p310
aV29%
p311
aV15%
p312
aV25%
p313
aV22%
p314
aV30%
p315
aV50%
p316
aV65%
p317
aV15%
p318
aV25%
p319
aV89%
p320
aV64%
p321
aV67%
p322
aV50%
p323
aV0%
p324
aV75%
p325
aV15%
p326
aV67%
p327
aV50%
p328
aV10%
p329
aV10%
p330
aV10%
p331
aV30%
p332
aV25%
p333
aV10%
p334
aV10%
p335
aV0%
p336
aV10%
p337
aV10%
p338
aV15%
p339
aV25%
p340
aV25%
p341
aV50%
p342
aV15%
p343
aV10%
p344
aV25%
p345
aV6%
p346
aV50%
p347
aV50%
p348
aV20%
p349
aV20%
p350
aV20%
p351
aV5%
p352
aV30%
p353
aV30%
p354
aV10%
p355
aV25%
p356
aV15%
p357
aV15%
p358
aV25%
p359
aV10%
p360
aV20%
p361
aV10%
p362
aV25%
p363
aV20%
p364
aV10%
p365
aV25%
p366
aV25%
p367
aV20%
p368
aV20%
p369
aV25%
p370
aV10%
p371
aV10%
p372
aV15%
p373
aV33%
p374
aV5%
p375
aV40%
p376
aV30%
p377
aV15%
p378
aV10%
p379
aV15%
p380
aV30%
p381
aV30%
p382
aV30%
p383
aV10%
p384
aV25%
p385
aV20%
p386
aV25%
p387
aV25%
p388
aV25%
p389
aV25%
p390
aV50%
p391
aV25%
p392
aV25%
p393
aV25%
p394
aV25%
p395
aV25%
p396
aV25%
p397
aV25%
p398
aV25%
p399
aV10%
p400
aV25%
p401
aV15%
p402
aV18%
p403
aV25%
p404
aV40%
p405
aV0%
p406
aV40%
p407
aV35%
p408
aV30%
p409
aV25%
p410
aV25%
p411
aV15%
p412
aV30%
p413
aV23%
p414
aV20%
p415
aV30%
p416
aV25%
p417
aV10%
p418
aV20%
p419
aV33%
p420
aV15%
p421
aV0%
p422
aV0%
p423
aV40%
p424
aV10%
p425
aV10%
p426
aV15%
p427
aV50%
p428
aV5%
p429
aV25%
p430
aV50%
p431
aV10%
p432
aV50%
p433
aV20%
p434
aV10%
p435
aV33%
p436
aV25%
p437
aV7%
p438
aV10%
p439
aV30%
p440
aV30%
p441
aV10%
p442
aV39%
p443
aV25%
p444
aV30%
p445
aV15%
p446
aV40%
p447
aV60%
p448
aV45%
p449
aV30%
p450
aV30%
p451
aV0%
p452
aV17%
p453
aV0%
p454
aV15%
p455
aV38%
p456
aV0%
p457
aV25%
p458
aV34%
p459
aV33%
p460
aV15%
p461
aV67%
p462
aV67%
p463
aV62%
p464
aV62%
p465
aV40%
p466
aV55%
p467
aV25%
p468
aV25%
p469
aV40%
p470
aV35%
p471
aV45%
p472
aV40%
p473
aV15%
p474
aV25%
p475
aV20%
p476
aV5%
p477
aV20%
p478
aV10%
p479
aV10%
p480
aV30%
p481
aV20%
p482
aV20%
p483
aV0%
p484
aV25%
p485
aV0%
p486
aV20%
p487
aV20%
p488
aV37%
p489
aV30%
p490
aV10%
p491
aV15%
p492
aV8%
p493
aV10%
p494
aV25%
p495
aV11%
p496
aV15%
p497
aV10%
p498
aV7%
p499
aV25%
p500
aV15%
p501
aV20%
p502
aV20%
p503
aV10%
p504
aV10%
p505
aV25%
p506
aV26%
p507
aV20%
p508
aV21%
p509
aV35%
p510
aV15%
p511
aV37%
p512
aV25%
p513
aV14%
p514
aV60%
p515
aV30%
p516
aV30%
p517
aV33%
p518
aV10%
p519
aV15%
p520
aV15%
p521
aV48%
p522
aV11%
p523
aV25%
p524
aV25%
p525
aV33%
p526
aV33%
p527
aV33%
p528
aV33%
p529
aV25%
p530
aV30%
p531
aV25%
p532
aV20%
p533
aV29%
p534
aV25%
p535
aV20%
p536
aV20%
p537
aV25%
p538
aV25%
p539
aV13%
p540
aV40%
p541
aV20%
p542
aV0%
p543
aV20%
p544
aV20%
p545
aV10%
p546
aV10%
p547
aV15%
p548
aV20%
p549
aV10%
p550
aV36%
p551
aV10%
p552
aV20%
p553
aV65%
p554
aV17%
p555
aV7%
p556
aV20%
p557
aV0%
p558
aV20%
p559
aV15%
p560
aV15%
p561
aV10%
p562
aV35%
p563
aV20%
p564
aV30%
p565
aV10%
p566
aV10%
p567
aV25%
p568
aV25%
p569
aV15%
p570
aV20%
p571
aV10%
p572
aV50%
p573
aV34%
p574
aV5%
p575
aV25%
p576
aV10%
p577
aV15%
p578
aV10%
p579
aV12%
p580
aV15%
p581
aV15%
p582
aV25%
p583
aV10%
p584
aV25%
p585
aV10%
p586
aV30%
p587
aV25%
p588
aV34%
p589
aV20%
p590
aV25%
p591
aV10%
p592
aV20%
p593
aV20%
p594
aV20%
p595
aV20%
p596
aV10%
p597
aV15%
p598
aV15%
p599
aV15%
p600
aV45%
p601
aV20%
p602
aV40%
p603
aV15%
p604
aV30%
p605
aV28%
p606
aV15%
p607
aV10%
p608
aV10%
p609
aV20%
p610
aV50%
p611
aV33%
p612
aV10%
p613
aV30%
p614
aV20%
p615
aV20%
p616
a.