(dp1
I15
I450
sI17
I451
sI19
I452
sI93
I199
sI125
I453
sI137
I454
sI139
I455
sI145
I456
sI153
I457
sI157
I458
sI166
I120
sI169
I191
sI215
I149
sI225
I459
sI227
I460
sI228
I461
sI229
I462
sI230
I463
sI231
I464
sI232
I465
sI233
I466
sI234
I467
sI235
I468
sI236
I469
sI237
I470
sI239
I471
sI240
I472
sI241
I473
sI243
I474
sI244
I475
sI245
I476
sI247
I477
sI248
I478
sI249
I479
sI250
I480
sI251
I112
sI254
I481
sI255
I482
sI256
I483
sI257
I484
sI258
I485
sI259
I192
sI260
I486
sI261
I487
sI262
I141
sI263
I488
sI264
I489
sI265
I490
sI266
I491
sI267
I492
sI268
I493
sI269
I494
sI270
I495
sI272
I496
sI273
I497
sI274
I498
sI275
I189
sI278
I499
sI279
I27
sI280
I500
sI281
I128
sI284
I105
sI285
I501
sI286
I502
sI291
I503
sI292
I504
sI293
I505
sI296
I506
sI297
I198
sI298
I118
sI300
I507
sI301
I508
sI302
I509
sI303
I510
sI304
I119
sI305
I148
sI306
I511
sI307
I512
sI308
I513
sI309
I514
sI311
I515
sI312
I516
sI313
I517
sI316
I518
sI317
I23
sI318
I519
sI319
I520
sI320
I521
sI321
I522
sI322
I523
sI326
I524
sI327
I525
sI328
I526
sI329
I527
sI330
I312
sI331
I528
sI332
I529
sI333
I530
sI334
I531
sI335
I532
sI336
I533
sI337
I203
sI338
I534
sI339
I535
sI340
I536
sI341
I129
sI342
I537
sI344
I254
sI345
I538
sI346
I153
sI347
I98
sI349
I539
sI350
I540
sI353
I204
sI354
I541
sI355
I31
sI356
I542
sI357
I103
sI358
I543
sI359
I110
sI361
I544
sI362
I296
sI363
I104
sI364
I255
sI365
I190
sI366
I545
sI367
I546
sI369
I547
sI374
I548
sI375
I549
sI376
I550
sI377
I551
sI378
I552
sI379
I398
sI380
I352
sI381
I553
sI382
I554
sI383
I372
sI384
I246
sI385
I555
sI391
I556
sI394
I413
sI395
I323
sI396
I58
sI398
I319
sI399
I276
sI403
I320
sI406
I146
sI408
I557
sI409
I558
sI413
I147
sI414
I559
sI416
I111
sI417
I560
sI419
I21
sI420
I561
sI421
I202
sI424
I562
sI425
I350
sI426
I563
sI428
I564
sI429
I415
sI430
I565
sI432
I566
sI433
I567
sI434
I243
sI435
I568
sI436
I569
sI437
I270
sI438
I570
sI439
I571
sI440
I431
sI441
I139
sI442
I572
sI443
I573
sI445
I574
sI447
I575
sI448
I576
sI449
I577
sI450
I0
sI451
I578
sI454
I579
sI456
I229
sI457
I580
sI459
I418
sI460
I581
sI461
I184
sI462
I582
sI464
I374
sI467
I583
sI468
I584
sI469
I585
sI471
I586
sI472
I587
sI473
I75
sI474
I437
sI476
I588
sI479
I210
sI480
I300
sI482
I301
sI484
I589
sI485
I590
sI487
I591
sI488
I592
sI490
I127
sI491
I593
sI492
I594
sI494
I102
sI495
I595
sI496
I440
sI497
I596
sI498
I57
sI501
I137
sI503
I597
sI505
I212
sI507
I117
sI509
I295
sI510
I337
sI511
I598
sI512
I422
sI514
I599
sI516
I244
sI519
I600
sI520
I330
sI526
I140
sI528
I601
sI531
I96
sI532
I366
sI533
I152
sI534
I443
sI535
I602
sI536
I109
sI538
I97
sI539
I131
sI540
I603
sI542
I448
sI543
I309
sI546
I433
sI547
I604
sI548
I169
sI549
I273
sI552
I242
sI560
I217
sI565
I605
sI567
I84
sI568
I125
sI569
I365
sI570
I429
sI571
I606
sI572
I420
sI574
I421
sI575
I303
sI577
I364
sI578
I607
sI579
I608
sI580
I293
sI581
I609
sI582
I610
sI584
I611
sI585
I134
sI586
I612
sI588
I613
sI594
I614
sI597
I126
sI604
I77
sI608
I425
sI610
I449
sI611
I197
sI612
I446
sI614
I138
sI616
I447
sI622
I116
sI623
I445
sI624
I327
sI627
I444
sI628
I438
sI631
I427
sI633
I442
sI634
I439
sI635
I441
sI646
I401
sI647
I371
sI649
I430
sI650
I238
sI651
I209
sI653
I151
sI655
I426
sI656
I416
sI658
I30
sI662
I436
sI663
I435
sI664
I408
sI665
I409
sI667
I49
sI668
I305
sI670
I419
sI676
I145
sI678
I328
sI680
I434
sI682
I410
sI683
I424
sI687
I363
sI689
I432
sI690
I403
sI693
I188
sI694
I95
sI695
I373
sI696
I428
sI697
I361
sI700
I336
sI701
I332
sI704
I231
sI708
I358
sI709
I264
sI710
I423
sI712
I404
sI718
I417
sI721
I411
sI724
I405
sI725
I414
sI727
I382
sI728
I367
sI729
I412
sI730
I359
sI734
I407
sI736
I406
sI746
I402
sI747
I362
sI749
I379
sI750
I399
sI751
I375
sI752
I380
sI753
I381
sI754
I108
sI755
I353
sI757
I360
sI758
I400
sI759
I354
sI760
I357
sI761
I390
sI762
I391
sI763
I182
sI764
I392
sI765
I393
sI766
I394
sI767
I395
sI768
I396
sI769
I397
sI770
I383
sI771
I384
sI772
I385
sI773
I386
sI774
I387
sI775
I388
sI776
I389
sI778
I376
sI779
I377
sI780
I378
sI781
I356
sI782
I368
sI789
I370
sI798
I369
sI799
I234
sI801
I183
sI802
I315
sI803
I56
sI804
I318
sI805
I341
sI808
I297
sI809
I165
sI810
I355
sI813
I187
sI823
I311
sI824
I351
sI825
I74
sI827
I94
sI832
I329
sI833
I299
sI836
I124
sI837
I335
sI839
I342
sI843
I348
sI844
I345
sI845
I346
sI846
I347
sI850
I132
sI851
I349
sI852
I340
sI853
I290
sI854
I339
sI855
I338
sI859
I344
sI861
I343
sI865
I287
sI868
I334
sI869
I115
sI871
I322
sI872
I253
sI876
I331
sI877
I326
sI879
I195
sI884
I306
sI893
I207
sI896
I333
sI897
I302
sI903
I86
sI913
I208
sI914
I271
sI916
I136
sI917
I173
sI920
I325
sI923
I113
sI925
I310
sI926
I307
sI929
I143
sI934
I324
sI936
I181
sI941
I250
sI944
I321
sI946
I274
sI948
I308
sI949
I291
sI951
I220
sI953
I114
sI954
I316
sI955
I313
sI956
I317
sI957
I314
sI961
I304
sI962
I285
sI963
I286
sI972
I60
sI974
I150
sI977
I196
sI982
I93
sI983
I298
sI984
I275
sI990
I272
sI995
I201
sI1002
I107
sI1003
I294
sI1005
I99
sI1007
I205
sI1008
I292
sI1009
I225
sI1011
I20
sI1013
I288
sI1017
I106
sI1021
I216
sI1024
I289
sI1028
I247
sI1029
I186
sI1033
I281
sI1034
I284
sI1040
I282
sI1041
I283
sI1046
I228
sI1047
I176
sI1052
I245
sI1053
I278
sI1054
I279
sI1055
I280
sI1056
I277
sI1068
I168
sI1071
I206
sI1084
I249
sI1085
I142
sI1100
I100
sI1102
I260
sI1103
I261
sI1104
I251
sI1105
I172
sI1107
I266
sI1110
I269
sI1114
I101
sI1115
I123
sI1116
I267
sI1121
I268
sI1128
I265
sI1130
I262
sI1131
I263
sI1132
I259
sI1137
I26
sI1138
I256
sI1140
I257
sI1141
I258
sI1143
I252
sI1144
I164
sI1146
I214
sI1147
I215
sI1150
I133
sI1151
I241
sI1153
I81
sI1156
I156
sI1158
I248
sI1161
I83
sI1182
I240
sI1183
I233
sI1188
I160
sI1189
I237
sI1190
I161
sI1191
I121
sI1194
I239
sI1196
I162
sI1204
I179
sI1206
I226
sI1207
I180
sI1208
I230
sI1209
I92
sI1211
I235
sI1212
I236
sI1213
I193
sI1215
I222
sI1216
I232
sI1217
I223
sI1219
I178
sI1222
I55
sI1225
I14
sI1226
I135
sI1228
I224
sI1229
I227
sI1231
I194
sI1232
I163
sI1233
I200
sI1241
I221
sI1243
I218
sI1245
I219
sI1246
I122
sI1247
I211
sI1248
I42
sI1250
I213
sI1252
I177
sI1258
I185
sI1259
I157
sI1264
I70
sI1265
I158
sI1266
I159
sI1267
I175
sI1268
I72
sI1271
I87
sI1274
I174
sI1275
I144
sI1282
I34
sI1284
I12
sI1288
I171
sI1289
I170
sI1290
I166
sI1291
I167
sI1293
I41
sI1295
I53
sI1297
I76
sI1303
I155
sI1307
I154
sI1324
I71
sI1328
I73
sI1330
I88
sI1332
I48
sI1333
I78
sI1336
I79
sI1337
I66
sI1339
I130
sI1340
I80
sI1343
I67
sI1349
I51
sI1350
I89
sI1351
I90
sI1352
I91
sI1355
I82
sI1356
I47
sI1361
I85
sI1367
I62
sI1368
I68
sI1369
I63
sI1370
I69
sI1371
I64
sI1372
I59
sI1373
I52
sI1376
I65
sI1378
I61
sI1379
I24
sI1382
I45
sI1385
I25
sI1386
I46
sI1387
I54
sI1390
I50
sI1392
I36
sI1396
I7
sI1399
I35
sI1400
I8
sI1401
I32
sI1403
I40
sI1404
I37
sI1406
I38
sI1407
I39
sI1409
I43
sI1410
I44
sI1418
I33
sI1419
I16
sI1420
I19
sI1421
I17
sI1433
I18
sI1437
I3
sI1440
I28
sI1441
I29
sI1455
I15
sI1460
I22
sI1466
I4
sI1468
I13
sI1471
I9
sI1472
I10
sI1473
I1
sI1474
I2
sI1477
I11
sI1478
I5
sI1482
I6
s.