(dp1
I409600
I1006
sI40960
I600
sI516100
I720
sI8200
I1448
sI10
I1868
sI258050
I977
sI8210
I1449
sI20
I1858
sI6830
I2001
sI8220
I1450
sI30
I1871
sI434210
I2226
sI8230
I1451
sI40
I1872
sI385070
I574
sI8240
I1452
sI50
I1859
sI409651
I2473
sI409652
I2474
sI333150
I1266
sI467000
I577
sI8250
I1453
sI60
I1873
sI8260
I1454
sI70
I1860
sI524360
I359
sI204880
I779
sI475220
I1024
sI467030
I1285
sI467031
I1286
sI467032
I1287
sI467033
I1288
sI286810
I354
sI467035
I1290
sI467036
I1291
sI467037
I1292
sI467038
I1293
sI467039
I1294
sI467040
I1295
sI467041
I1296
sI467042
I1297
sI467043
I1298
sI467044
I1299
sI467045
I1300
sI467046
I1301
sI467047
I1302
sI467048
I1303
sI467049
I1304
sI467050
I1305
sI467051
I1306
sI8300
I1457
sI286830
I355
sI333160
I1267
sI262260
I1784
sI348180
I2063
sI130
I1861
sI426120
I788
sI8330
I1458
sI409740
I974
sI47810
I629
sI24720
I886
sI8340
I1474
sI409750
I1036
sI270490
I2060
sI303260
I1828
sI336030
I1833
sI327840
I1348
sI24740
I903
sI344230
I2089
sI453370
I2250
sI450730
I222
sI237740
I1035
sI46450
I1819
sI385200
I320
sI450740
I2303
sI450750
I2327
sI462880
I2254
sI398710
I1199
sI499910
I504
sI385230
I2512
sI377040
I1851
sI24790
I889
sI377050
I1852
sI491740
I970
sI24800
I888
sI376870
I1470
sI299250
I2030
sI24810
I890
sI453330
I695
sI240
I1874
sI389160
I1254
sI434420
I820
sI229621
I1963
sI229622
I1964
sI377080
I1881
sI229626
I1966
sI229627
I1965
sI229628
I1969
sI229629
I1968
sI229630
I1967
sI336130
I1883
sI368900
I319
sI375510
I544
sI393480
I1078
sI450830
I646
sI467220
I976
sI418070
I510
sI280
I1863
sI303390
I230
sI458800
I1687
sI24870
I904
sI57640
I1994
sI300
I1870
sI409650
I2472
sI284040
I1826
sI524600
I935
sI475450
I921
sI409653
I2462
sI320
I1866
sI293600
I1827
sI319810
I1970
sI434500
I2349
sI418120
I1746
sI426330
I1540
sI246110
I1238
sI360
I1864
sI409660
I2490
sI237930
I1168
sI270700
I2377
sI508271
I535
sI49520
I1607
sI344440
I939
sI459130
I2433
sI380
I1865
sI24960
I882
sI24963
I883
sI418180
I1412
sI311690
I638
sI418190
I2292
sI400
I1875
sI300440
I2438
sI300441
I2439
sI115100
I1232
sI420
I1867
sI115110
I1233
sI369070
I2044
sI115120
I1234
sI434610
I647
sI508340
I595
sI238010
I1164
sI65980
I1659
sI442820
I764
sI270790
I2217
sI377290
I1247
sI483790
I2413
sI16860
I1189
sI16861
I1188
sI16862
I1187
sI16863
I1190
sI80
I1869
sI16866
I1194
sI16867
I1191
sI16868
I1186
sI385511
I2432
sI451050
I2080
sI500
I1876
sI47870
I905
sI410110
I644
sI401920
I1798
sI262230
I1420
sI442890
I2296
sI352780
I2279
sI459280
I1373
sI8280
I1455
sI352790
I2280
sI500250
I689
sI287260
I134
sI368730
I1357
sI262690
I2406
sI336420
I914
sI459310
I1544
sI311860
I1170
sI336440
I1386
sI287290
I1990
sI428810
I1077
sI459330
I1545
sI8290
I1456
sI328270
I1181
sI517560
I94
sI451160
I766
sI516700
I330
sI107104
I1167
sI492130
I1012
sI393830
I2121
sI393831
I2122
sI377450
I1671
sI287340
I135
sI252690
I1947
sI402030
I679
sI434800
I842
sI303730
I1500
sI320120
I2277
sI405610
I1243
sI377470
I567
sI377480
I568
sI369290
I1020
sI467600
I1375
sI8850
I1655
sI41070
I1218
sI423365
I1680
sI217200
I2189
sI271010
I1423
sI467620
I1376
sI423366
I1681
sI8870
I1654
sI301720
I2094
sI40940
I1603
sI267720
I2124
sI352950
I2021
sI344770
I1761
sI492240
I348
sI451290
I1728
sI337360
I2192
sI8930
I1185
sI361190
I2084
sI459500
I859
sI241790
I1729
sI434940
I216
sI434941
I210
sI434942
I207
sI434943
I211
sI434944
I208
sI402180
I1666
sI385800
I677
sI295690
I813
sI369420
I1504
sI344850
I836
sI8980
I1606
sI288630
I2507
sI353050
I742
sI353051
I743
sI353052
I744
sI353053
I745
sI8990
I1602
sI425840
I2316
sI402210
I1022
sI385830
I2483
sI410410
I1621
sI516910
I514
sI418610
I2423
sI328500
I982
sI341470
I1787
sI381650
I919
sI400180
I581
sI467770
I46
sI33600
I1992
sI525792
I156
sI394050
I7
sI456120
I2500
sI443205
I774
sI525793
I157
sI451400
I219
sI450700
I1273
sI33610
I1993
sI525794
I158
sI385870
I603
sI230883
I1903
sI501220
I900
sI320350
I1971
sI230885
I1905
sI435040
I946
sI320353
I1973
sI254820
I1575
sI525798
I162
sI492390
I1402
sI492391
I1403
sI361320
I954
sI320361
I1975
sI476010
I37
sI516971
I480
sI516972
I481
sI516973
I482
sI451440
I1395
sI516977
I483
sI516978
I484
sI516979
I485
sI516980
I486
sI516981
I487
sI516982
I488
sI230889
I1923
sI254840
I1576
sI315540
I2016
sI320380
I1981
sI525802
I166
sI320382
I1983
sI320383
I1984
sI320384
I1985
sI320385
I1986
sI320386
I1987
sI230891
I1908
sI320388
I1989
sI517000
I1669
sI386540
I1352
sI459660
I693
sI467034
I1289
sI451480
I2065
sI402330
I1057
sI467870
I341
sI254880
I1578
sI451490
I2066
sI410531
I2205
sI33700
I60
sI426920
I2134
sI426921
I2135
sI426922
I2136
sI426923
I2137
sI451500
I2067
sI426925
I2139
sI33710
I59
sI426927
I2141
sI426928
I2142
sI426929
I2143
sI385970
I1372
sI376990
I1857
sI492470
I1310
sI33720
I58
sI525812
I193
sI207690
I2042
sI50110
I1604
sI409760
I2489
sI33730
I502
sI254920
I1579
sI437070
I917
sI230888
I1919
sI525818
I199
sI410590
I323
sI33760
I63
sI478032
I1690
sI312290
I2430
sI459750
I2087
sI464380
I1561
sI394220
I986
sI478034
I1692
sI17390
I884
sI426991
I2145
sI426992
I2146
sI426993
I2147
sI451570
I1743
sI426995
I2149
sI426996
I2150
sI353790
I953
sI426998
I2152
sI426999
I2153
sI427000
I2154
sI478036
I1694
sI427002
I2156
sI427003
I2157
sI427004
I2158
sI427005
I2159
sI402430
I621
sI427007
I2161
sI467970
I2251
sI279560
I1623
sI478039
I1697
sI498520
I1034
sI312340
I1427
sI290990
I2383
sI17430
I902
sI17440
I885
sI282800
I1424
sI238630
I1802
sI345130
I1619
sI267783
I2209
sI312370
I1211
sI17460
I628
sI267785
I2215
sI451640
I2402
sI320570
I2441
sI435260
I2400
sI222730
I2330
sI301920
I1425
sI394310
I1359
sI17480
I887
sI396130
I1790
sI451670
I2351
sI478052
I1709
sI353370
I561
sI451680
I2403
sI423440
I1539
sI402530
I826
sI353380
I331
sI478054
I1711
sI509030
I582
sI509031
I583
sI509032
I584
sI517240
I1562
sI500860
I840
sI381120
I2024
sI500870
I1488
sI42120
I915
sI525450
I2482
sI337040
I618
sI226840
I2310
sI42140
I907
sI443550
I991
sI435360
I1264
sI304290
I1517
sI517290
I552
sI517291
I553
sI517292
I554
sI304301
I1519
sI1200
I1780
sI443570
I1045
sI488990
I2475
sI509110
I369
sI42170
I909
sI402620
I1017
sI476350
I315
sI476351
I316
sI476352
I317
sI206020
I704
sI345290
I952
sI492750
I831
sI449400
I1946
sI312530
I1809
sI206040
I705
sI1250
I1767
sI456230
I2171
sI271590
I624
sI263400
I1422
sI1257
I1769
sI500970
I1184
sI206060
I706
sI255220
I126
sI492790
I1026
sI320760
I1263
sI416640
I1537
sI443650
I2167
sI270550
I1634
sI419080
I1843
sI410890
I1018
sI509200
I754
sI419090
I1440
sI312600
I2275
sI99610
I1192
sI99611
I1193
sI99612
I1195
sI99614
I1196
sI501030
I1043
sI451880
I573
sI220
I1862
sI394540
I376
sI296240
I793
sI463070
I2477
sI443710
I1364
sI434400
I2227
sI337220
I1752
sI369990
I226
sI517450
I365
sI460120
I632
sI329050
I722
sI476510
I1748
sI247140
I1805
sI443750
I2248
sI478030
I1688
sI353640
I225
sI299240
I1169
sI312690
I1591
sI386420
I850
sI370040
I2362
sI361850
I1004
sI430314
I270
sI345470
I2127
sI226880
I1759
sI361880
I1000
sI501150
I993
sI501151
I994
sI368880
I2509
sI312740
I1592
sI463090
I1882
sI443830
I1543
sI394680
I942
sI329150
I304
sI263620
I2270
sI247240
I1804
sI484810
I2405
sI501200
I578
sI386520
I1532
sI525790
I154
sI525791
I155
sI353760
I1212
sI353761
I1213
sI509410
I1013
sI525795
I159
sI525796
I160
sI525797
I161
sI411110
I645
sI525799
I163
sI525800
I164
sI525801
I165
sI353770
I1214
sI525803
I167
sI468460
I860
sI288240
I218
sI525810
I191
sI525811
I192
sI271860
I538
sI525813
I194
sI525814
I195
sI525815
I196
sI525816
I197
sI525817
I198
sI411130
I1182
sI525819
I200
sI525820
I201
sI525821
I202
sI525822
I203
sI525823
I204
sI525830
I168
sI525831
I169
sI525832
I170
sI525833
I171
sI525834
I172
sI525835
I173
sI525836
I174
sI525837
I175
sI525838
I176
sI525839
I177
sI321040
I144
sI525841
I178
sI351150
I374
sI386590
I2352
sI456690
I948
sI353830
I1660
sI435760
I2401
sI352520
I1327
sI239160
I1159
sI334773
I2258
sI441270
I1763
sI493130
I1481
sI271950
I1240
sI509520
I42
sI509521
I43
sI509522
I44
sI484950
I1033
sI435800
I1999
sI468580
I867
sI460390
I2332
sI493160
I1482
sI321140
I2196
sI321141
I2197
sI321142
I2198
sI345720
I2203
sI200980
I699
sI378490
I1838
sI11200
I1598
sI419460
I686
sI247430
I1154
sI427660
I2035
sI222880
I579
sI314200
I2394
sI334790
I2263
sI394920
I1816
sI493230
I1394
sI476860
I1313
sI476861
I1314
sI476862
I1315
sI476863
I1316
sI476864
I1317
sI476865
I1318
sI476866
I1319
sI476867
I1320
sI476868
I1321
sI476869
I1322
sI476870
I1323
sI476871
I1324
sI255690
I127
sI255691
I128
sI255692
I129
sI476880
I1042
sI501460
I1044
sI332580
I2241
sI485080
I1495
sI439930
I2350
sI443330
I557
sI485090
I2511
sI272100
I2236
sI378610
I555
sI288500
I2506
sI476920
I1486
sI297940
I2437
sI292480
I2273
sI427780
I1631
sI296710
I602
sI411400
I1436
sI411401
I1437
sI468750
I73
sI50960
I712
sI444180
I1685
sI485141
I1717
sI485142
I1718
sI485143
I1719
sI485144
I1720
sI485145
I1721
sI50970
I713
sI50980
I714
sI485160
I381
sI50990
I715
sI468790
I691
sI51000
I716
sI520500
I560
sI329530
I2312
sI403260
I1794
sI448140
I565
sI370510
I1253
sI427860
I622
sI460640
I1480
sI452450
I992
sI485220
I385
sI11240
I1733
sI460660
I328
sI452470
I1183
sI526200
I179
sI526201
I180
sI526202
I181
sI526203
I182
sI526204
I183
sI526205
I184
sI296830
I958
sI526207
I186
sI526209
I187
sI526210
I188
sI526211
I189
sI526212
I190
sI362380
I1082
sI354190
I2382
sI395160
I1249
sI255910
I782
sI362410
I822
sI411570
I1554
sI337850
I709
sI428880
I2086
sI407200
I2077
sI411590
I2029
sI463180
I852
sI509900
I45
sI460750
I654
sI485330
I380
sI354260
I1755
sI501720
I630
sI46440
I1818
sI419810
I2064
sI321510
I998
sI255980
I2118
sI108200
I2130
sI428020
I1541
sI395260
I1417
sI411650
I2050
sI444420
I1365
sI428040
I1542
sI296970
I2331
sI485390
I2233
sI305180
I1582
sI305181
I1583
sI460830
I312
sI305183
I1585
sI305184
I1586
sI305185
I1587
sI485410
I1230
sI305187
I1589
sI387110
I10
sI460840
I313
sI387120
I11
sI403510
I1511
sI334774
I2259
sI313400
I2276
sI444480
I1176
sI501830
I386
sI223313
I1734
sI493650
I879
sI223315
I1736
sI223316
I1738
sI223317
I1739
sI223318
I1737
sI223319
I1740
sI223320
I1741
sI223321
I1742
sI403550
I785
sI312680
I1590
sI403560
I547
sI419951
I2293
sI403570
I1224
sI366270
I2321
sI12650
I62
sI313480
I2219
sI460940
I614
sI431810
I1335
sI388120
I692
sI313500
I2220
sI359450
I2283
sI460960
I827
sI108231
I2129
sI12660
I61
sI358090
I1636
sI420030
I2051
sI338120
I1410
sI436430
I2166
sI508280
I1016
sI420050
I1255
sI461020
I623
sI305390
I572
sI94590
I1463
sI436470
I988
sI289020
I136
sI289021
I137
sI289022
I138
sI289023
I139
sI289024
I140
sI289025
I141
sI35080
I1098
sI519212
I422
sI35083
I1099
sI420110
I678
sI35089
I1100
sI35090
I1101
sI35091
I1102
sI519214
I424
sI485660
I235
sI35101
I1096
sI35102
I1097
sI289840
I1626
sI256290
I1390
sI207140
I1360
sI436520
I147
sI289070
I855
sI346420
I1275
sI35130
I1109
sI428350
I619
sI35135
I1105
sI35136
I1106
sI35137
I1107
sI35138
I1108
sI436550
I2034
sI305480
I2388
sI502090
I771
sI452940
I925
sI362830
I2022
sI428370
I634
sI461140
I936
sI452950
I926
sI305500
I1829
sI444770
I2242
sI223594
I871
sI444790
I1225
sI313740
I1663
sI461890
I2231
sI428430
I221
sI338320
I1834
sI374510
I2497
sI371100
I2243
sI354730
I1446
sI371120
I1627
sI485810
I635
sI354740
I1447
sI338360
I1432
sI403900
I548
sI346560
I1497
sI2500
I1597
sI485860
I1027
sI319910
I1601
sI453100
I1073
sI232530
I729
sI485870
I668
sI346610
I607
sI256500
I1911
sI256501
I1912
sI256502
I1913
sI256503
I1914
sI256504
I1915
sI256505
I1916
sI256506
I1917
sI256507
I1918
sI371200
I91
sI428550
I2294
sI248330
I981
sI444940
I151
sI264730
I1824
sI379420
I636
sI363610
I2342
sI322080
I973
sI354850
I318
sI501510
I384
sI270770
I2218
sI223792
I721
sI428600
I1958
sI428601
I1959
sI428602
I1960
sI428603
I1942
sI428604
I1943
sI428605
I1944
sI485950
I1064
sI510530
I878
sI371270
I1813
sI404040
I1596
sI313930
I1522
sI313931
I1523
sI313932
I1524
sI428630
I241
sI35425
I1770
sI35429
I1771
sI354920
I541
sI434620
I2355
sI346730
I2278
sI502380
I236
sI232050
I1498
sI305780
I2346
sI485140
I1716
sI379520
I334
sI356800
I1530
sI207490
I1387
sI35460
I980
sI510600
I655
sI477840
I2340
sI453270
I370
sI527000
I153
sI354970
I864
sI469660
I332
sI485146
I1722
sI453280
I918
sI314020
I660
sI352710
I2375
sI461480
I1788
sI461940
I1413
sI387770
I1853
sI387780
I1854
sI395980
I321
sI489250
I2447
sI387790
I1855
sI248530
I997
sI395990
I2049
sI387800
I1856
sI371420
I1072
sI232570
I732
sI469730
I512
sI469740
I626
sI510710
I366
sI397780
I1535
sI207610
I1464
sI19200
I1732
sI461570
I346
sI207620
I1466
sI486150
I1180
sI387850
I1021
sI453390
I929
sI463320
I1547
sI338710
I1334
sI486170
I357
sI387880
I2513
sI486190
I1723
sI371510
I1329
sI240440
I1037
sI346940
I1416
sI502590
I1040
sI363330
I598
sI494410
I1274
sI319970
I2164
sI355150
I1252
sI478031
I1689
sI510800
I989
sI478033
I1691
sI461650
I1546
sI478035
I1693
sI494420
I556
sI478037
I1695
sI478038
I1696
sI363351
I1029
sI396120
I844
sI478041
I1699
sI478042
I1700
sI478043
I1701
sI478044
I1702
sI478045
I1703
sI478046
I1704
sI478047
I1705
sI478049
I1706
sI478050
I1707
sI478051
I1708
sI428900
I694
sI478053
I1710
sI379750
I608
sI478055
I1712
sI478056
I1713
sI478057
I1714
sI478058
I1715
sI396140
I1791
sI289650
I1400
sI35700
I1599
sI437110
I1216
sI306040
I814
sI461690
I1208
sI33650
I2005
sI366400
I1398
sI35720
I1600
sI387980
I1931
sI387981
I1932
sI387982
I1933
sI387983
I1934
sI387984
I1935
sI437140
I1217
sI428950
I873
sI461720
I1209
sI265120
I217
sI420770
I2427
sI355240
I2281
sI314290
I604
sI412600
I508
sI410100
I1937
sI461760
I851
sI330690
I1349
sI463350
I821
sI396230
I1533
sI388050
I2418
sI461780
I1368
sI371670
I375
sI396250
I1534
sI363490
I506
sI265191
I1156
sI265192
I1157
sI265193
I1158
sI494570
I228
sI445420
I1355
sI306160
I231
sI363510
I1361
sI38740
I70
sI289800
I1624
sI281610
I1408
sI333170
I1926
sI338960
I796
sI355350
I1048
sI306200
I795
sI420890
I246
sI289820
I1625
sI338980
I797
sI453670
I242
sI519210
I420
sI519211
I421
sI470060
I841
sI519213
I423
sI502830
I832
sI519215
I425
sI519216
I426
sI519217
I427
sI519218
I428
sI519219
I429
sI461880
I2230
sI502841
I41
sI340490
I588
sI388160
I545
sI11330
I1616
sI396360
I377
sI11340
I1613
sI288610
I2496
sI449720
I2128
sI314450
I815
sI330840
I1469
sI444260
I665
sI404570
I2201
sI478300
I927
sI478301
I928
sI11360
I1617
sI232550
I730
sI11370
I1330
sI461931
I2099
sI461932
I2100
sI461933
I2101
sI461934
I2102
sI461935
I2103
sI355440
I808
sI388210
I1242
sI380020
I816
sI230880
I1904
sI355450
I809
sI470140
I2339
sI11390
I1614
sI399460
I2421
sI363650
I2284
sI273540
I606
sI289930
I1221
sI408770
I9
sI232590
I731
sI298140
I1332
sI459290
I1374
sI470180
I224
sI369180
I1837
sI437420
I1491
sI380080
I659
sI230882
I1902
sI453810
I753
sI317300
I2396
sI11450
I95
sI370550
I2480
sI462030
I757
sI403320
I1795
sI418340
I1312
sI453850
I2228
sI3300
I283
sI386940
I1407
sI470250
I1611
sI230884
I1906
sI3310
I287
sI526206
I185
sI339190
I807
sI3320
I288
sI27900
I1051
sI421120
I1997
sI3330
I285
sI355590
I1328
sI511240
I711
sI208140
I2071
sI403330
I1796
sI27920
I1052
sI3350
I284
sI334270
I2409
sI374660
I2245
sI3360
I296
sI404770
I310
sI27940
I1053
sI421160
I247
sI421161
I248
sI421162
I249
sI421163
I250
sI421164
I251
sI421165
I252
sI421166
I253
sI384221
I1644
sI3380
I289
sI44350
I118
sI396610
I12
sI511300
I846
sI511301
I847
sI257350
I1370
sI230887
I1907
sI3400
I295
sI445770
I1023
sI396620
I13
sI388430
I592
sI3410
I293
sI281940
I1580
sI333710
I2381
sI232790
I1236
sI388440
I1648
sI412900
I1353
sI462170
I875
sI216411
I1112
sI216412
I1113
sI216413
I1114
sI216414
I1115
sI216415
I1116
sI28000
I1165
sI216417
I1118
sI388450
I1345
sI216419
I1120
sI216420
I1121
sI216421
I1122
sI3430
I291
sI28010
I1103
sI28011
I1104
sI3440
I294
sI363890
I2326
sI19830
I1380
sI3450
I292
sI3460
I297
sI339340
I749
sI249230
I520
sI396690
I2288
sI339350
I798
sI3480
I298
sI520772
I455
sI486810
I951
sI429470
I1256
sI343280
I2222
sI363940
I1835
sI511400
I775
sI454060
I586
sI331181
I2431
sI355760
I2486
sI3390
I286
sI350110
I1222
sI363960
I1836
sI282050
I244
sI351461
I1268
sI437701
I857
sI437702
I858
sI339400
I1442
sI307010
I1785
sI363980
I2285
sI351480
I616
sI454100
I995
sI527830
I47
sI527831
I48
sI527832
I49
sI527833
I50
sI347610
I941
sI527835
I52
sI527836
I53
sI527837
I54
sI527838
I55
sI527839
I56
sI238530
I1801
sI527841
I57
sI3560
I300
sI282090
I130
sI282091
I131
sI282092
I132
sI455250
I824
sI306670
I146
sI249330
I2269
sI306680
I2014
sI200185
I2186
sI3580
I301
sI200189
I2184
sI429570
I1471
sI3590
I302
sI396810
I609
sI269570
I1750
sI503310
I631
sI249360
I617
sI355860
I1793
sI298520
I2057
sI331300
I999
sI107100
I1166
sI486960
I220
sI306440
I1807
sI396850
I1005
sI224820
I1800
sI454200
I379
sI405050
I1842
sI359440
I2282
sI462400
I1059
sI8800
I1658
sI290060
I2501
sI410210
I549
sI501690
I345
sI487010
I2434
sI208500
I104
sI320370
I1978
sI3710
I1566
sI437890
I611
sI429700
I378
sI298630
I2372
sI237990
I2237
sI3720
I1567
sI620
I1877
sI429710
I254
sI429711
I255
sI3730
I1569
sI224920
I1124
sI320371
I1979
sI374880
I2345
sI356000
I1529
sI339620
I1008
sI233130
I1219
sI224940
I1125
sI339630
I1009
sI478040
I1698
sI388790
I1435
sI298680
I1551
sI422120
I1747
sI224960
I1126
sI364230
I959
sI306890
I1924
sI224980
I1129
sI364250
I333
sI331490
I1
sI331491
I2
sI331492
I3
sI225000
I1130
sI370020
I2410
sI413420
I2305
sI364270
I2361
sI11560
I97
sI415700
I2078
sI438010
I1174
sI225020
I1131
sI421630
I1555
sI495360
I923
sI495361
I924
sI495370
I2053
sI495371
I2054
sI438030
I1175
sI241430
I2072
sI413470
I657
sI372511
I1640
sI372512
I1641
sI257830
I1066
sI487220
I368
sI44340
I101
sI3900
I1657
sI438080
I1200
sI266050
I613
sI421700
I1668
sI3910
I1656
sI487240
I1647
sI274250
I2366
sI429900
I257
sI429901
I258
sI429902
I259
sI429903
I260
sI429904
I261
sI429905
I262
sI429906
I263
sI429907
I264
sI429908
I265
sI470870
I2478
sI331610
I2019
sI233310
I708
sI444390
I2297
sI487270
I238
sI208750
I2492
sI487280
I783
sI520050
I489
sI520051
I490
sI520052
I491
sI520053
I492
sI520054
I493
sI520055
I494
sI520056
I495
sI520057
I496
sI520058
I497
sI520059
I498
sI520060
I499
sI397190
I2098
sI462730
I1493
sI208790
I1136
sI208791
I1153
sI208792
I1135
sI208793
I1134
sI208795
I1133
sI208796
I1142
sI208797
I1145
sI208798
I1143
sI208799
I1144
sI208800
I1146
sI520100
I500
sI520101
I430
sI520102
I431
sI208807
I1138
sI208808
I1139
sI208809
I1149
sI208810
I1140
sI208811
I1148
sI208812
I1141
sI520109
I438
sI520110
I439
sI520111
I440
sI520112
I441
sI208817
I1151
sI208818
I1150
sI315320
I1831
sI511930
I969
sI430020
I1484
sI257990
I1633
sI331720
I978
sI210936
I1776
sI487380
I1250
sI265550
I756
sI528342
I80
sI528343
I81
sI528344
I82
sI528345
I83
sI528346
I84
sI528347
I85
sI528348
I86
sI528349
I87
sI528350
I88
sI528351
I89
sI528352
I90
sI266210
I566
sI528360
I14
sI528361
I15
sI528362
I16
sI528363
I17
sI225260
I1235
sI528365
I19
sI380910
I1643
sI528367
I20
sI528368
I21
sI528369
I22
sI528371
I23
sI307190
I2390
sI528380
I24
sI528381
I25
sI528382
I26
sI528383
I27
sI528384
I28
sI528385
I29
sI528386
I30
sI528387
I31
sI528388
I32
sI528389
I33
sI528390
I34
sI528391
I35
sI528392
I36
sI45740
I306
sI307210
I2095
sI299020
I2508
sI331790
I1172
sI405520
I1215
sI225300
I1127
sI307230
I1635
sI340000
I1812
sI454690
I2229
sI397350
I1595
sI225320
I1128
sI3420
I290
sI258090
I1418
sI453880
I2479
sI405550
I605
sI397370
I610
sI61500
I2308
sI216416
I1117
sI438340
I2487
sI266310
I2195
sI73057
I2110
sI216418
I1119
sI348240
I361
sI430170
I2055
sI389220
I2494
sI340070
I661
sI471740
I2334
sI528490
I92
sI462960
I1336
sI282470
I2162
sI446590
I1346
sI274560
I811
sI471170
I1494
sI258180
I1160
sI473110
I343
sI249990
I1961
sI413840
I1206
sI397460
I829
sI389270
I789
sI258200
I759
sI372890
I2510
sI315550
I2017
sI495780
I845
sI495790
I652
sI78000
I303
sI348340
I1609
sI305182
I1584
sI463030
I2488
sI209080
I669
sI487610
I770
sI397500
I818
sI455370
I1998
sI389310
I1406
sI463040
I1227
sI291010
I812
sI487620
I1632
sI348360
I663
sI463050
I1245
sI372940
I1670
sI305186
I1588
sI438480
I765
sI430290
I337
sI450780
I1886
sI357070
I149
sI291030
I2384
sI430300
I338
sI299230
I2311
sI488970
I2445
sI430310
I266
sI430311
I267
sI430312
I268
sI430313
I269
sI454890
I1178
sI430315
I271
sI430316
I272
sI430317
I273
sI430318
I274
sI430319
I275
sI430320
I276
sI430321
I277
sI430322
I278
sI463100
I2232
sI12540
I64
sI200960
I698
sI225540
I1879
sI463110
I358
sI400770
I1841
sI12560
I65
sI454930
I1226
sI282900
I525
sI471320
I2314
sI730
I1878
sI200990
I700
sI438560
I717
sI305200
I1520
sI430370
I2056
sI201000
I701
sI307500
I2391
sI454960
I830
sI73096
I2113
sI201010
I702
sI397620
I322
sI250180
I2318
sI340300
I1070
sI413070
I1675
sI340310
I1071
sI495960
I688
sI284730
I1503
sI425360
I1438
sI291170
I772
sI235580
I1197
sI463210
I1179
sI495980
I658
sI233840
I2191
sI471410
I2338
sI463220
I1177
sI432190
I2426
sI291190
I2408
sI283000
I569
sI348540
I4
sI319850
I1832
sI12670
I66
sI414080
I2364
sI235584
I1198
sI242050
I1399
sI283020
I570
sI250260
I1803
sI94620
I1462
sI496030
I931
sI20900
I1513
sI446900
I1366
sI20920
I1514
sI233920
I739
sI512450
I758
sI397770
I943
sI12750
I96
sI250320
I1467
sI405970
I637
sI233940
I738
sI258520
I590
sI340730
I1726
sI496100
I1081
sI496101
I1076
sI233960
I740
sI223314
I1735
sI347560
I543
sI266740
I2119
sI508670
I937
sI12790
I98
sI520700
I442
sI316160
I1996
sI12810
I99
sI394870
I2343
sI406030
I1845
sI387160
I2436
sI299540
I1516
sI406040
I1846
sI12830
I100
sI406050
I1847
sI406060
I1848
sI307760
I2015
sI520760
I443
sI520761
I444
sI520762
I445
sI520763
I446
sI520764
I447
sI520765
I448
sI520766
I449
sI520767
I450
sI520768
I451
sI520769
I452
sI520770
I453
sI520771
I454
sI389700
I240
sI488010
I922
sI504400
I513
sI414290
I1010
sI471640
I1724
sI317540
I2397
sI250460
I1822
sI294330
I2380
sI432230
I2313
sI368060
I1637
sI512620
I897
sI512621
I898
sI512622
I899
sI373360
I2023
sI22634
I2178
sI275080
I2007
sI200130
I2006
sI365210
I1531
sI397980
I1223
sI463520
I1025
sI391280
I1039
sI347590
I940
sI262940
I1995
sI340650
I865
sI332460
I1239
sI485490
I1766
sI422580
I1955
sI348860
I2081
sI471741
I2335
sI258750
I1777
sI258751
I1778
sI520900
I148
sI45770
I307
sI201420
I68
sI45773
I724
sI45774
I725
sI45775
I726
sI45776
I727
sI217810
I671
sI455460
I2052
sI234210
I735
sI488170
I1622
sI316140
I2061
sI302950
I2387
sI234230
I734
sI3540
I299
sI463610
I854
sI461850
I2357
sI258815
I2210
sI275200
I1806
sI496390
I351
sI488200
I347
sI234250
I736
sI389900
I956
sI381710
I746
sI381712
I747
sI381713
I748
sI311680
I2393
sI398100
I8
sI527834
I51
sI373540
I916
sI260230
I1388
sI275240
I2378
sI389930
I2047
sI521010
I363
sI454110
I2428
sI373560
I1642
sI486880
I2358
sI447300
I1367
sI308040
I1731
sI283470
I2505
sI314410
I1786
sI284950
I2088
sI471910
I1765
sI463720
I2317
sI455530
I2411
sI471920
I534
sI463750
I1014
sI455560
I2036
sI455561
I2037
sI455562
I2038
sI414610
I810
sI488340
I633
sI439190
I2333
sI222021
I1573
sI218020
I707
sI496550
I856
sI406440
I305
sI357290
I1062
sI512940
I2329
sI454130
I2514
sI381870
I776
sI410440
I2028
sI466420
I2485
sI414651
I2123
sI488380
I1341
sI414660
I1508
sI335350
I2315
sI488390
I1342
sI70600
I2179
sI512970
I901
sI496590
I1041
sI406480
I335
sI450040
I2300
sI439250
I1258
sI70616
I2187
sI383140
I985
sI406490
I336
sI498270
I964
sI44360
I102
sI373730
I1338
sI201700
I103
sI357350
I1948
sI200188
I2185
sI324590
I2442
sI357360
I2075
sI507390
I710
sI455670
I2000
sI398330
I1792
sI357380
I1789
sI373770
I2287
sI234510
I1782
sI250900
I1797
sI383150
I2193
sI283680
I2272
sI495110
I895
sI496680
I2235
sI504880
I2091
sI320352
I1972
sI95300
I2491
sI450060
I2302
sI521290
I456
sI31270
I1459
sI339470
I2224
sI431190
I209
sI431191
I215
sI204303
I1887
sI365660
I2368
sI208400
I703
sI504930
I696
sI328550
I1527
sI201830
I1461
sI320360
I1974
sI267774
I2208
sI406650
I1536
sI320362
I1976
sI349310
I2370
sI204309
I1894
sI341120
I984
sI320363
I1977
sI21640
I723
sI504970
I1046
sI390290
I1060
sI234650
I1414
sI341150
I615
sI308420
I2407
sI431270
I325
sI242860
I681
sI402290
I1079
sI451443
I1397
sI488630
I1083
sI316600
I1428
sI320372
I1980
sI21690
I755
sI292030
I1515
sI324800
I282
sI390340
I752
sI61520
I2309
sI251080
I1909
sI251081
I1910
sI464080
I1265
sI488660
I551
sI234710
I1465
sI373980
I2046
sI415080
I1662
sI13540
I1377
sI496870
I1231
sI320381
I1982
sI319017
I531
sI382200
I1953
sI431370
I2069
sI423180
I1354
sI65920
I1605
sI320387
I1988
sI226580
I143
sI415000
I1753
sI365850
I2286
sI431390
I2070
sI406830
I1849
sI406840
I1850
sI286260
I1760
sI513340
I790
sI46400
I1817
sI406850
I383
sI480580
I1065
sI390470
I6
sI423240
I787
sI254860
I1577
sI46410
I1331
sI447820
I580
sI480590
I38
sI480593
I39
sI480594
I40
sI406870
I1512
sI398680
I1058
sI450670
I2328
sI496990
I979
sI464230
I1610
sI456040
I1011
sI373650
I1055
sI497010
I1061
sI316790
I1237
sI447870
I1884
sI521600
I537
sI298560
I2336
sI447880
I327
sI439690
I2097
sI497040
I593
sI423320
I1538
sI425540
I1940
sI497050
I509
sI439710
I1650
sI226720
I733
sI406950
I1080
sI390570
I2419
sI456110
I2170
sI273240
I2271
sI382390
I1629
sI46520
I1615
sI423361
I1676
sI423362
I1677
sI423363
I1678
sI423364
I1679
sI334070
I1326
sI439750
I1557
sI423367
I1682
sI423368
I1683
sI46540
I1820
sI410530
I2204
sI439770
I1558
sI259550
I1496
sI488930
I2444
sI112100
I697
sI390630
I1649
sI370940
I2306
sI46570
I1821
sI407020
I2289
sI431600
I536
sI447990
I1651
sI267770
I2211
sI267771
I2214
sI341500
I373
sI267773
I2207
sI292350
I1751
sI325120
I360
sI267778
I2212
sI300550
I1415
sI259591
I1030
sI259592
I1031
sI426924
I2138
sI267786
I2213
sI357900
I2225
sI218640
I957
sI426926
I2140
sI431640
I664
sI464410
I2414
sI407070
I2290
sI488991
I2476
sI464420
I2415
sI251430
I1823
sI456231
I2172
sI226860
I2045
sI464430
I2416
sI292400
I2092
sI485640
I237
sI489010
I2446
sI456250
I1686
sI325180
I2202
sI321800
I1371
sI390720
I1204
sI451510
I2068
sI448070
I233
sI390740
I2048
sI415320
I1443
sI439900
I2247
sI431710
I1257
sI257970
I2376
sI505440
I329
sI439910
I1201
sI218740
I533
sI409193
I2454
sI398970
I651
sI464511
I1276
sI464512
I1277
sI464513
I1278
sI407830
I2027
sI464520
I1279
sI464521
I1280
sI464522
I1281
sI464523
I1282
sI464524
I1283
sI464525
I1284
sI292500
I2274
sI366230
I2319
sI259740
I1489
sI522844
I473
sI382630
I1814
sI362780
I503
sI366250
I2320
sI3700
I1568
sI407230
I819
sI399040
I2425
sI513730
I526
sI415431
I2291
sI366280
I2322
sI235210
I741
sI382670
I1815
sI333520
I2443
sI291790
I2125
sI390870
I2026
sI235230
I2190
sI431840
I777
sI488400
I1343
sI374500
I2076
sI284390
I825
sI358120
I2165
sI513770
I719
sI456430
I1485
sI489200
I2359
sI448260
I1207
sI104200
I371
sI292620
I539
sI423700
I1363
sI70617
I2188
sI227100
I1574
sI365530
I2199
sI423710
I1173
sI333600
I676
sI407330
I1667
sI472870
I1019
sI341800
I892
sI70620
I2180
sI38700
I67
sI268080
I2074
sI492510
I1311
sI489780
I1745
sI390970
I1244
sI259900
I1155
sI279800
I1490
sI38720
I69
sI317250
I372
sI423760
I2348
sI415570
I1954
sI366420
I150
sI470670
I589
sI365540
I2200
sI464730
I2090
sI485690
I1487
sI235360
I2216
sI55140
I243
sI366440
I2253
sI317290
I2395
sI235380
I2221
sI391040
I145
sI305472
I2440
sI423810
I683
sI497540
I1347
sI312300
I1521
sI456590
I2082
sI448400
I947
sI63380
I1570
sI426990
I2144
sI489300
I2448
sI481180
I1001
sI463440
I853
sI391070
I546
sI423840
I2484
sI70640
I2181
sI63398
I1571
sI63399
I1572
sI391080
I1840
sI333740
I1333
sI426994
I2148
sI456630
I1472
sI513980
I778
sI426997
I2151
sI489410
I2449
sI332790
I2341
sI497620
I1941
sI448470
I1945
sI427001
I2155
sI276440
I2495
sI464860
I2267
sI70650
I2183
sI415710
I2079
sI489450
I2450
sI346450
I863
sI415730
I1362
sI210931
I1774
sI210932
I1772
sI210933
I1773
sI210934
I1775
sI350200
I223
sI317440
I1350
sI514050
I675
sI432470
I2499
sI333830
I620
sI473100
I342
sI376372
I1930
sI489490
I1038
sI235540
I913
sI432150
I326
sI70660
I2182
sI497690
I838
sI473120
I344
sI284710
I1502
sI317480
I2353
sI317490
I2354
sI374840
I2498
sI489530
I563
sI358460
I761
sI350270
I2131
sI350271
I2132
sI424000
I767
sI399430
I507
sI22600
I2173
sI497740
I612
sI485730
I2344
sI284750
I596
sI497750
I1210
sI391260
I817
sI522333
I279
sI522334
I280
sI522335
I281
sI497760
I996
sI284770
I894
sI235620
I1032
sI22630
I2174
sI22631
I2175
sI22632
I2176
sI22633
I2177
sI456810
I1074
sI489580
I1441
sI317550
I2398
sI514160
I75
sI284790
I597
sI514170
I76
sI383100
I955
sI289130
I2073
sI211070
I1007
sI448640
I866
sI514180
I77
sI301190
I1069
sI284810
I1509
sI235660
I1499
sI391310
I1764
sI465060
I339
sI465070
I340
sI284850
I1510
sI440500
I311
sI497850
I877
sI366780
I1433
sI391360
I1673
sI362870
I2324
sI284870
I1506
sI391370
I1674
sI383180
I2194
sI448720
I839
sI481490
I1744
sI415960
I786
sI284890
I1507
sI476490
I1548
sI375010
I784
sI440550
I349
sI497910
I1251
sI297000
I1384
sI391420
I802
sI334080
I1429
sI407810
I1220
sI335190
I1430
sI448780
I1063
sI514320
I558
sI448790
I843
sI407940
I542
sI350490
I2399
sI342300
I2020
sI276770
I1389
sI383270
I364
sI47400
I601
sI454550
I2169
sI394290
I2481
sI448820
I1339
sI399670
I585
sI465210
I2168
sI293180
I229
sI497990
I1056
sI413410
I2304
sI211280
I1054
sI344740
I2493
sI473430
I2206
sI375130
I1553
sI358750
I1727
sI342380
I1664
sI375160
I1628
sI235900
I2323
sI203140
I1123
sI372020
I1952
sI473480
I950
sI347470
I1404
sI252310
I1385
sI203160
I1132
sI440730
I206
sI375200
I1665
sI465320
I1356
sI448940
I1684
sI358830
I2096
sI468040
I1203
sI498110
I965
sI367040
I564
sI457120
I2043
sI31170
I1475
sI433910
I1646
sI334280
I1325
sI31180
I1476
sI31190
I1477
sI399831
I1936
sI473560
I874
sI399833
I1270
sI399834
I1271
sI399836
I1272
sI31200
I1478
sI326120
I540
sI31210
I1479
sI391660
I575
sI457201
I2133
sI489974
I521
sI40703
I2041
sI395690
I2246
sI489990
I1725
sI278460
I1444
sI416270
I324
sI522770
I387
sI522771
I388
sI522772
I389
sI522773
I390
sI522774
I391
sI522775
I392
sI522776
I393
sI522777
I394
sI522778
I395
sI522779
I396
sI383520
I2363
sI498210
I960
sI408100
I212
sI408101
I214
sI408102
I213
sI522791
I458
sI522792
I459
sI522793
I460
sI522794
I461
sI522795
I462
sI522796
I463
sI522797
I464
sI522798
I465
sI522799
I466
sI522800
I467
sI522801
I468
sI416310
I944
sI522810
I397
sI522811
I398
sI522812
I399
sI522813
I400
sI522814
I401
sI522815
I402
sI522816
I403
sI522817
I404
sI522818
I405
sI522819
I406
sI522820
I407
sI465480
I1439
sI498250
I962
sI341090
I975
sI481870
I1337
sI47700
I891
sI274190
I880
sI522840
I469
sI522841
I470
sI522842
I471
sI522843
I472
sI342620
I1047
sI522845
I474
sI522846
I475
sI522847
I476
sI522849
I477
sI522850
I478
sI522851
I479
sI490090
I1309
sI522860
I408
sI522861
I409
sI522862
I410
sI522863
I411
sI522864
I412
sI522865
I413
sI522866
I414
sI522867
I415
sI522868
I416
sI522869
I417
sI522870
I418
sI522871
I419
sI342650
I1351
sI244160
I1409
sI473730
I1229
sI514700
I718
sI301710
I2093
sI211600
I1110
sI318100
I1259
sI15000
I1379
sI6810
I2004
sI252590
I670
sI449200
I550
sI309940
I2392
sI372510
I1639
sI6840
I2002
sI6850
I1085
sI6860
I1086
sI408270
I1620
sI6870
I1087
sI324730
I2062
sI6880
I1088
sI449250
I673
sI309991
I1779
sI285420
I1445
sI383730
I2325
sI6900
I1084
sI6910
I1089
sI383750
I2025
sI211720
I1757
sI318220
I2018
sI15120
I1378
sI432600
I768
sI47890
I868
sI47898
I869
sI238370
I2120
sI211740
I1111
sI326430
I1593
sI326431
I1594
sI418950
I1552
sI408360
I1762
sI393010
I2163
sI47920
I906
sI359220
I245
sI47930
I870
sI310080
I1880
sI358880
I2058
sI15170
I1382
sI6980
I1090
sI490310
I1205
sI449360
I2298
sI359250
I356
sI7000
I1091
sI403940
I1358
sI506720
I763
sI416610
I2422
sI318310
I1525
sI433000
I1672
sI301930
I1426
sI7020
I1565
sI351090
I1344
sI465780
I227
sI334710
I2347
sI408440
I1661
sI318330
I1526
sI424830
I2059
sI498560
I849
sI499520
I594
sI2540
I1612
sI429890
I256
sI359310
I2240
sI526830
I2360
sI269210
I2429
sI203680
I106
sI261030
I1468
sI490410
I522
sI490411
I523
sI490412
I524
sI482222
I1307
sI482224
I1308
sI334770
I2255
sI334771
I2256
sI334772
I2257
sI402590
I1799
sI359350
I1405
sI228280
I1369
sI383930
I972
sI334780
I2260
sI334781
I2261
sI334782
I2262
sI394400
I2420
sI7110
I627
sI334791
I2264
sI334792
I2265
sI334793
I2266
sI277450
I2008
sI457680
I684
sI277460
I2009
sI277470
I2010
sI434780
I2249
sI465890
I930
sI498660
I861
sI349350
I2371
sI400360
I823
sI457710
I648
sI277490
I2011
sI424950
I987
sI291050
I2379
sI277500
I2012
sI384000
I1049
sI449540
I667
sI277510
I1825
sI304300
I1518
sI15370
I1383
sI277520
I2013
sI269330
I1730
sI416790
I309
sI236570
I737
sI293920
I2385
sI277540
I2504
sI274270
I2367
sI203830
I805
sI277560
I656
sI400450
I362
sI427190
I308
sI233470
I2239
sI398520
I2369
sI457810
I792
sI433240
I2031
sI433241
I2032
sI433242
I2033
sI457820
I576
sI446310
I1559
sI482410
I1749
sI399890
I599
sI457840
I639
sI457841
I640
sI457842
I641
sI482420
I876
sI312510
I1808
sI474230
I1015
sI327530
I1925
sI359550
I1381
sI509120
I505
sI294020
I1067
sI449680
I1003
sI72850
I1756
sI457880
I591
sI42180
I908
sI408730
I2374
sI507040
I1957
sI466800
I1393
sI515240
I893
sI326840
I625
sI348020
I1754
sI12520
I501
sI449730
I674
sI400580
I672
sI477730
I1501
sI446330
I1560
sI498910
I966
sI449760
I2424
sI423120
I1556
sI384226
I1645
sI351460
I1927
sI522790
I457
sI335080
I1618
sI305490
I2389
sI302320
I571
sI105000
I804
sI228600
I780
sI228601
I781
sI301610
I1261
sI351490
I801
sI498950
I967
sI498960
I968
sI247000
I760
sI384280
I2435
sI310560
I142
sI31280
I1460
sI326950
I0
sI427006
I2160
sI343360
I232
sI335170
I983
sI490820
I1202
sI498230
I961
sI73030
I2104
sI73031
I2106
sI73033
I2105
sI343370
I1528
sI73035
I2107
sI73036
I2108
sI73037
I2109
sI73039
I2112
sI294230
I1068
sI236890
I1075
sI433500
I687
sI31290
I1473
sI343390
I938
sI335200
I1431
sI458640
I837
sI73058
I2111
sI388420
I1839
sI391740
I1652
sI40300
I515
sI1256
I1768
sI335220
I1885
sI416320
I945
sI359810
I1483
sI331670
I828
sI376200
I1434
sI73097
I2114
sI73098
I2115
sI343440
I682
sI204180
I800
sI318870
I1161
sI318871
I1162
sI318872
I1163
sI302490
I794
sI73115
I2116
sI499100
I932
sI73119
I2117
sI499110
I933
sI466350
I642
sI499120
I934
sI301640
I1581
sI503710
I239
sI466360
I643
sI499130
I833
sI490940
I1246
sI368061
I1638
sI425410
I562
sI294340
I2386
sI40390
I516
sI40391
I517
sI40392
I518
sI40393
I519
sI417230
I2365
sI450000
I750
sI450001
I751
sI522830
I382
sI499160
I834
sI269790
I1550
sI425440
I2238
sI490980
I2234
sI208806
I1137
sI441830
I1050
sI351720
I2223
sI520103
I432
sI520104
I433
sI515570
I152
sI507380
I93
sI7670
I1653
sI520105
I434
sI491000
I666
sI498260
I963
sI520106
I435
sI466430
I799
sI499200
I835
sI450050
I2301
sI520107
I436
sI261640
I1608
sI520108
I437
sI204300
I1888
sI208813
I1152
sI228880
I920
sI204305
I1890
sI204306
I1891
sI204307
I1892
sI204308
I1893
sI208814
I1147
sI204310
I1895
sI204311
I1896
sI204312
I1897
sI204314
I1898
sI204315
I1920
sI220700
I2252
sI204317
I1899
sI204318
I1900
sI204319
I1901
sI450080
I1956
sI478990
I2337
sI319011
I527
sI319014
I528
sI319015
I529
sI319016
I530
sI383580
I872
sI319018
I532
sI523820
I352
sI523821
I353
sI433710
I2295
sI376370
I1928
sI376371
I1929
sI327220
I806
sI376373
I1269
sI65080
I2503
sI368190
I1241
sI523840
I350
sI310850
I1830
sI220740
I803
sI425542
I1938
sI425544
I1939
sI220760
I1758
sI222480
I1962
sI409190
I2451
sI409191
I2452
sI409192
I2453
sI360380
I662
sI409194
I2455
sI220780
I587
sI409200
I2456
sI409201
I2457
sI409202
I2458
sI409203
I2459
sI409204
I2460
sI451442
I1396
sI474750
I896
sI220801
I105
sI220802
I107
sI220803
I108
sI220804
I109
sI220805
I110
sI220806
I111
sI220807
I112
sI220809
I113
sI384650
I1630
sI220811
I116
sI220812
I114
sI220813
I115
sI409240
I2461
sI409241
I2463
sI360090
I1949
sI499360
I862
sI409250
I2464
sI409251
I2465
sI409252
I2466
sI409253
I2467
sI409254
I2468
sI409255
I2469
sI409256
I2470
sI409257
I2471
sI482990
I2404
sI433840
I1844
sI360114
I1950
sI360115
I1951
sI253650
I2083
sI286670
I1921
sI204304
I1889
sI515800
I653
sI458470
I1505
sI458480
I1492
sI329000
I1171
sI245490
I1391
sI524020
I74
sI270070
I762
sI528340
I78
sI40700
I2039
sI528341
I79
sI352000
I1991
sI461440
I2307
sI520150
I1549
sI230700
I2268
sI352010
I5
sI261900
I690
sI371330
I2417
sI40720
I2040
sI466710
I2412
sI491300
I649
sI401190
I205
sI499500
I1260
sI491310
I650
sI474930
I314
sI8000
I1092
sI417610
I1563
sI491340
I1002
sI430050
I2085
sI417620
I1564
sI327510
I1810
sI466780
I949
sI417630
I71
sI327520
I1811
sI6800
I2003
sI466790
I1228
sI417640
I72
sI286570
I133
sI221040
I728
sI323560
I2126
sI368500
I1401
sI320830
I773
sI343930
I1028
sI376700
I2373
sI466820
I680
sI371350
I2244
sI327560
I990
sI528364
I18
sI8080
I1093
sI35480
I1781
sI466840
I511
sI232090
I1783
sI450470
I234
sI466870
I2356
sI409530
I848
sI204731
I910
sI204732
I911
sI435530
I559
sI204734
I912
sI450500
I2299
sI262142
I1419
sI466890
I769
sI8140
I1094
sI368590
I1248
sI286671
I1922
sI311250
I971
sI316750
I1392
sI409560
I791
sI352220
I1411
sI450530
I881
sI483300
I2502
sI221160
I120
sI221161
I122
sI221162
I119
sI221164
I121
sI221165
I117
sI221166
I125
sI221167
I124
sI221168
I123
sI458740
I685
sI8190
I1095
sI491510
I1340
sI516090
I367
sI262141
I1421
sI458750
I1262
s.