c__builtin__
set
p1
((lp2
I409600
aI40960
aI516100
aI8200
aI10
aI258050
aI8210
aI20
aI6830
aI8220
aI30
aI434210
aI8230
aI40
aI385070
aI8240
aI50
aI409651
aI409652
aI333150
aI467000
aI8250
aI60
aI8260
aI70
aI524360
aI204880
aI475220
aI467030
aI467031
aI467032
aI467033
aI286810
aI467035
aI467036
aI467037
aI467038
aI467039
aI467040
aI467041
aI467042
aI467043
aI467044
aI467045
aI467046
aI467047
aI467048
aI467049
aI467050
aI467051
aI8300
aI286830
aI333160
aI262260
aI348180
aI130
aI426120
aI8330
aI409740
aI47810
aI24720
aI8340
aI409750
aI270490
aI303260
aI336030
aI327840
aI24740
aI344230
aI453370
aI450730
aI237740
aI46450
aI385200
aI450740
aI450750
aI462880
aI398710
aI499910
aI385230
aI377040
aI24790
aI377050
aI491740
aI24800
aI376870
aI299250
aI24810
aI453330
aI240
aI389160
aI434420
aI229621
aI229622
aI377080
aI229626
aI229627
aI229628
aI229629
aI229630
aI336130
aI368900
aI375510
aI393480
aI450830
aI467220
aI418070
aI280
aI303390
aI458800
aI24870
aI57640
aI300
aI409650
aI284040
aI524600
aI475450
aI409653
aI320
aI293600
aI319810
aI434500
aI418120
aI426330
aI246110
aI360
aI409660
aI237930
aI270700
aI508271
aI49520
aI344440
aI459130
aI380
aI24960
aI24963
aI418180
aI311690
aI418190
aI400
aI300440
aI300441
aI115100
aI420
aI115110
aI369070
aI115120
aI434610
aI508340
aI238010
aI65980
aI442820
aI270790
aI377290
aI483790
aI16860
aI16861
aI16862
aI16863
aI80
aI16866
aI16867
aI16868
aI385511
aI451050
aI500
aI47870
aI410110
aI401920
aI262230
aI442890
aI352780
aI459280
aI8280
aI352790
aI500250
aI287260
aI368730
aI262690
aI336420
aI459310
aI311860
aI336440
aI287290
aI428810
aI459330
aI8290
aI328270
aI517560
aI451160
aI516700
aI107104
aI492130
aI393830
aI393831
aI377450
aI287340
aI252690
aI402030
aI434800
aI303730
aI320120
aI405610
aI377470
aI377480
aI369290
aI467600
aI8850
aI41070
aI423365
aI217200
aI271010
aI467620
aI423366
aI8870
aI301720
aI40940
aI267720
aI352950
aI344770
aI492240
aI451290
aI337360
aI8930
aI361190
aI459500
aI241790
aI434940
aI434941
aI434942
aI434943
aI434944
aI402180
aI385800
aI295690
aI369420
aI344850
aI8980
aI288630
aI353050
aI353051
aI353052
aI353053
aI8990
aI425840
aI402210
aI385830
aI410410
aI516910
aI418610
aI328500
aI341470
aI381650
aI400180
aI467770
aI33600
aI525792
aI394050
aI456120
aI443205
aI525793
aI451400
aI450700
aI33610
aI525794
aI385870
aI230883
aI501220
aI320350
aI230885
aI435040
aI320353
aI254820
aI525798
aI492390
aI492391
aI361320
aI320361
aI476010
aI516971
aI516972
aI516973
aI451440
aI516977
aI516978
aI516979
aI516980
aI516981
aI516982
aI230889
aI254840
aI315540
aI320380
aI525802
aI320382
aI320383
aI320384
aI320385
aI320386
aI230891
aI320388
aI517000
aI386540
aI459660
aI467034
aI451480
aI402330
aI467870
aI254880
aI451490
aI410531
aI33700
aI426920
aI426921
aI426922
aI426923
aI451500
aI426925
aI33710
aI426927
aI426928
aI426929
aI385970
aI376990
aI492470
aI33720
aI525812
aI207690
aI50110
aI409760
aI33730
aI254920
aI437070
aI230888
aI525818
aI410590
aI33760
aI478032
aI312290
aI459750
aI464380
aI394220
aI478034
aI17390
aI426991
aI426992
aI426993
aI451570
aI426995
aI426996
aI353790
aI426998
aI426999
aI427000
aI478036
aI427002
aI427003
aI427004
aI427005
aI402430
aI427007
aI467970
aI279560
aI478039
aI498520
aI312340
aI290990
aI17430
aI17440
aI282800
aI238630
aI345130
aI267783
aI312370
aI17460
aI267785
aI451640
aI320570
aI435260
aI222730
aI301920
aI394310
aI17480
aI396130
aI451670
aI478052
aI353370
aI451680
aI423440
aI402530
aI353380
aI478054
aI509030
aI509031
aI509032
aI517240
aI500860
aI381120
aI500870
aI42120
aI525450
aI337040
aI226840
aI42140
aI443550
aI435360
aI304290
aI517290
aI517291
aI517292
aI304301
aI1200
aI443570
aI488990
aI509110
aI42170
aI402620
aI476350
aI476351
aI476352
aI206020
aI345290
aI492750
aI449400
aI312530
aI206040
aI1250
aI456230
aI271590
aI263400
aI1257
aI500970
aI206060
aI255220
aI492790
aI320760
aI416640
aI443650
aI270550
aI419080
aI410890
aI509200
aI419090
aI312600
aI99610
aI99611
aI99612
aI99614
aI501030
aI451880
aI220
aI394540
aI296240
aI463070
aI443710
aI434400
aI337220
aI369990
aI517450
aI460120
aI329050
aI476510
aI247140
aI443750
aI478030
aI353640
aI299240
aI312690
aI386420
aI370040
aI361850
aI430314
aI345470
aI226880
aI361880
aI501150
aI501151
aI368880
aI312740
aI463090
aI443830
aI394680
aI329150
aI263620
aI247240
aI484810
aI501200
aI386520
aI525790
aI525791
aI353760
aI353761
aI509410
aI525795
aI525796
aI525797
aI411110
aI525799
aI525800
aI525801
aI353770
aI525803
aI468460
aI288240
aI525810
aI525811
aI271860
aI525813
aI525814
aI525815
aI525816
aI525817
aI411130
aI525819
aI525820
aI525821
aI525822
aI525823
aI525830
aI525831
aI525832
aI525833
aI525834
aI525835
aI525836
aI525837
aI525838
aI525839
aI321040
aI525841
aI351150
aI386590
aI456690
aI353830
aI435760
aI352520
aI239160
aI334773
aI441270
aI493130
aI271950
aI509520
aI509521
aI509522
aI484950
aI435800
aI468580
aI460390
aI493160
aI321140
aI321141
aI321142
aI345720
aI200980
aI378490
aI11200
aI419460
aI247430
aI427660
aI222880
aI314200
aI334790
aI394920
aI493230
aI476860
aI476861
aI476862
aI476863
aI476864
aI476865
aI476866
aI476867
aI476868
aI476869
aI476870
aI476871
aI255690
aI255691
aI255692
aI476880
aI501460
aI332580
aI485080
aI439930
aI443330
aI485090
aI272100
aI378610
aI288500
aI476920
aI297940
aI292480
aI427780
aI296710
aI411400
aI411401
aI468750
aI50960
aI444180
aI485141
aI485142
aI485143
aI485144
aI485145
aI50970
aI50980
aI485160
aI50990
aI468790
aI51000
aI520500
aI329530
aI403260
aI448140
aI370510
aI427860
aI460640
aI452450
aI485220
aI11240
aI460660
aI452470
aI526200
aI526201
aI526202
aI526203
aI526204
aI526205
aI296830
aI526207
aI526209
aI526210
aI526211
aI526212
aI362380
aI354190
aI395160
aI255910
aI362410
aI411570
aI337850
aI428880
aI407200
aI411590
aI463180
aI509900
aI460750
aI485330
aI354260
aI501720
aI46440
aI419810
aI321510
aI255980
aI108200
aI428020
aI395260
aI411650
aI444420
aI428040
aI296970
aI485390
aI305180
aI305181
aI460830
aI305183
aI305184
aI305185
aI485410
aI305187
aI387110
aI460840
aI387120
aI403510
aI334774
aI313400
aI444480
aI501830
aI223313
aI493650
aI223315
aI223316
aI223317
aI223318
aI223319
aI223320
aI223321
aI403550
aI312680
aI403560
aI419951
aI403570
aI366270
aI12650
aI313480
aI460940
aI431810
aI388120
aI313500
aI359450
aI460960
aI108231
aI12660
aI358090
aI420030
aI338120
aI436430
aI508280
aI420050
aI461020
aI305390
aI94590
aI436470
aI289020
aI289021
aI289022
aI289023
aI289024
aI289025
aI35080
aI519212
aI35083
aI420110
aI35089
aI35090
aI35091
aI519214
aI485660
aI35101
aI35102
aI289840
aI256290
aI207140
aI436520
aI289070
aI346420
aI35130
aI428350
aI35135
aI35136
aI35137
aI35138
aI436550
aI305480
aI502090
aI452940
aI362830
aI428370
aI461140
aI452950
aI305500
aI444770
aI223594
aI444790
aI313740
aI461890
aI428430
aI338320
aI374510
aI371100
aI354730
aI371120
aI485810
aI354740
aI338360
aI403900
aI346560
aI2500
aI485860
aI319910
aI453100
aI232530
aI485870
aI346610
aI256500
aI256501
aI256502
aI256503
aI256504
aI256505
aI256506
aI256507
aI371200
aI428550
aI248330
aI444940
aI264730
aI379420
aI363610
aI322080
aI354850
aI501510
aI270770
aI223792
aI428600
aI428601
aI428602
aI428603
aI428604
aI428605
aI485950
aI510530
aI371270
aI404040
aI313930
aI313931
aI313932
aI428630
aI35425
aI35429
aI354920
aI434620
aI346730
aI502380
aI232050
aI305780
aI485140
aI379520
aI356800
aI207490
aI35460
aI510600
aI477840
aI453270
aI527000
aI354970
aI469660
aI485146
aI453280
aI314020
aI352710
aI461480
aI461940
aI387770
aI387780
aI395980
aI489250
aI387790
aI248530
aI395990
aI387800
aI371420
aI232570
aI469730
aI469740
aI510710
aI397780
aI207610
aI19200
aI461570
aI207620
aI486150
aI387850
aI453390
aI463320
aI338710
aI486170
aI387880
aI486190
aI371510
aI240440
aI346940
aI502590
aI363330
aI494410
aI319970
aI355150
aI478031
aI510800
aI478033
aI461650
aI478035
aI494420
aI478037
aI478038
aI363351
aI396120
aI478041
aI478042
aI478043
aI478044
aI478045
aI478046
aI478047
aI478049
aI478050
aI478051
aI428900
aI478053
aI379750
aI478055
aI478056
aI478057
aI478058
aI396140
aI289650
aI35700
aI437110
aI306040
aI461690
aI33650
aI366400
aI35720
aI387980
aI387981
aI387982
aI387983
aI387984
aI437140
aI428950
aI461720
aI265120
aI420770
aI355240
aI314290
aI412600
aI410100
aI461760
aI330690
aI463350
aI396230
aI388050
aI461780
aI371670
aI396250
aI363490
aI265191
aI265192
aI265193
aI494570
aI445420
aI306160
aI363510
aI38740
aI289800
aI281610
aI333170
aI338960
aI355350
aI306200
aI420890
aI289820
aI338980
aI453670
aI519210
aI519211
aI470060
aI519213
aI502830
aI519215
aI519216
aI519217
aI519218
aI519219
aI461880
aI502841
aI340490
aI388160
aI11330
aI396360
aI11340
aI288610
aI449720
aI314450
aI330840
aI444260
aI404570
aI478300
aI478301
aI11360
aI232550
aI11370
aI461931
aI461932
aI461933
aI461934
aI461935
aI355440
aI388210
aI380020
aI230880
aI355450
aI470140
aI11390
aI399460
aI363650
aI273540
aI289930
aI408770
aI232590
aI298140
aI459290
aI470180
aI369180
aI437420
aI380080
aI230882
aI453810
aI317300
aI11450
aI370550
aI462030
aI403320
aI418340
aI453850
aI3300
aI386940
aI470250
aI230884
aI3310
aI526206
aI339190
aI3320
aI27900
aI421120
aI3330
aI355590
aI511240
aI208140
aI403330
aI27920
aI3350
aI334270
aI374660
aI3360
aI404770
aI27940
aI421160
aI421161
aI421162
aI421163
aI421164
aI421165
aI421166
aI384221
aI3380
aI44350
aI396610
aI511300
aI511301
aI257350
aI230887
aI3400
aI445770
aI396620
aI388430
aI3410
aI281940
aI333710
aI232790
aI388440
aI412900
aI462170
aI216411
aI216412
aI216413
aI216414
aI216415
aI28000
aI216417
aI388450
aI216419
aI216420
aI216421
aI3430
aI28010
aI28011
aI3440
aI363890
aI19830
aI3450
aI3460
aI339340
aI249230
aI396690
aI339350
aI3480
aI520772
aI486810
aI429470
aI343280
aI363940
aI511400
aI454060
aI331181
aI355760
aI3390
aI350110
aI363960
aI282050
aI351461
aI437701
aI437702
aI339400
aI307010
aI363980
aI351480
aI454100
aI527830
aI527831
aI527832
aI527833
aI347610
aI527835
aI527836
aI527837
aI527838
aI527839
aI238530
aI527841
aI3560
aI282090
aI282091
aI282092
aI455250
aI306670
aI249330
aI306680
aI200185
aI3580
aI200189
aI429570
aI3590
aI396810
aI269570
aI503310
aI249360
aI355860
aI298520
aI331300
aI107100
aI486960
aI306440
aI396850
aI224820
aI454200
aI405050
aI359440
aI462400
aI8800
aI290060
aI410210
aI501690
aI487010
aI208500
aI320370
aI3710
aI437890
aI429700
aI298630
aI237990
aI3720
aI620
aI429710
aI429711
aI3730
aI224920
aI320371
aI374880
aI356000
aI339620
aI233130
aI224940
aI339630
aI478040
aI388790
aI298680
aI422120
aI224960
aI364230
aI306890
aI224980
aI364250
aI331490
aI331491
aI331492
aI225000
aI370020
aI413420
aI364270
aI11560
aI415700
aI438010
aI225020
aI421630
aI495360
aI495361
aI495370
aI495371
aI438030
aI241430
aI413470
aI372511
aI372512
aI257830
aI487220
aI44340
aI3900
aI438080
aI266050
aI421700
aI3910
aI487240
aI274250
aI429900
aI429901
aI429902
aI429903
aI429904
aI429905
aI429906
aI429907
aI429908
aI470870
aI331610
aI233310
aI444390
aI487270
aI208750
aI487280
aI520050
aI520051
aI520052
aI520053
aI520054
aI520055
aI520056
aI520057
aI520058
aI520059
aI520060
aI397190
aI462730
aI208790
aI208791
aI208792
aI208793
aI208795
aI208796
aI208797
aI208798
aI208799
aI208800
aI520100
aI520101
aI520102
aI208807
aI208808
aI208809
aI208810
aI208811
aI208812
aI520109
aI520110
aI520111
aI520112
aI208817
aI208818
aI315320
aI511930
aI430020
aI257990
aI331720
aI210936
aI487380
aI265550
aI528342
aI528343
aI528344
aI528345
aI528346
aI528347
aI528348
aI528349
aI528350
aI528351
aI528352
aI266210
aI528360
aI528361
aI528362
aI528363
aI225260
aI528365
aI380910
aI528367
aI528368
aI528369
aI528371
aI307190
aI528380
aI528381
aI528382
aI528383
aI528384
aI528385
aI528386
aI528387
aI528388
aI528389
aI528390
aI528391
aI528392
aI45740
aI307210
aI299020
aI331790
aI405520
aI225300
aI307230
aI340000
aI454690
aI397350
aI225320
aI3420
aI258090
aI453880
aI405550
aI397370
aI61500
aI216416
aI438340
aI266310
aI73057
aI216418
aI348240
aI430170
aI389220
aI340070
aI471740
aI528490
aI462960
aI282470
aI446590
aI274560
aI471170
aI258180
aI473110
aI249990
aI413840
aI397460
aI389270
aI258200
aI372890
aI315550
aI495780
aI495790
aI78000
aI348340
aI305182
aI463030
aI209080
aI487610
aI397500
aI455370
aI389310
aI463040
aI291010
aI487620
aI348360
aI463050
aI372940
aI305186
aI438480
aI430290
aI450780
aI357070
aI291030
aI430300
aI299230
aI488970
aI430310
aI430311
aI430312
aI430313
aI454890
aI430315
aI430316
aI430317
aI430318
aI430319
aI430320
aI430321
aI430322
aI463100
aI12540
aI200960
aI225540
aI463110
aI400770
aI12560
aI454930
aI282900
aI471320
aI730
aI200990
aI438560
aI305200
aI430370
aI201000
aI307500
aI454960
aI73096
aI201010
aI397620
aI250180
aI340300
aI413070
aI340310
aI495960
aI284730
aI425360
aI291170
aI235580
aI463210
aI495980
aI233840
aI471410
aI463220
aI432190
aI291190
aI283000
aI348540
aI319850
aI12670
aI414080
aI235584
aI242050
aI283020
aI250260
aI94620
aI496030
aI20900
aI446900
aI20920
aI233920
aI512450
aI397770
aI12750
aI250320
aI405970
aI233940
aI258520
aI340730
aI496100
aI496101
aI233960
aI223314
aI347560
aI266740
aI508670
aI12790
aI520700
aI316160
aI12810
aI394870
aI406030
aI387160
aI299540
aI406040
aI12830
aI406050
aI406060
aI307760
aI520760
aI520761
aI520762
aI520763
aI520764
aI520765
aI520766
aI520767
aI520768
aI520769
aI520770
aI520771
aI389700
aI488010
aI504400
aI414290
aI471640
aI317540
aI250460
aI294330
aI432230
aI368060
aI512620
aI512621
aI512622
aI373360
aI22634
aI275080
aI200130
aI365210
aI397980
aI463520
aI391280
aI347590
aI262940
aI340650
aI332460
aI485490
aI422580
aI348860
aI471741
aI258750
aI258751
aI520900
aI45770
aI201420
aI45773
aI45774
aI45775
aI45776
aI217810
aI455460
aI234210
aI488170
aI316140
aI302950
aI234230
aI3540
aI463610
aI461850
aI258815
aI275200
aI496390
aI488200
aI234250
aI389900
aI381710
aI381712
aI381713
aI311680
aI398100
aI527834
aI373540
aI260230
aI275240
aI389930
aI521010
aI454110
aI373560
aI486880
aI447300
aI308040
aI283470
aI314410
aI284950
aI471910
aI463720
aI455530
aI471920
aI463750
aI455560
aI455561
aI455562
aI414610
aI488340
aI439190
aI222021
aI218020
aI496550
aI406440
aI357290
aI512940
aI454130
aI381870
aI410440
aI466420
aI414651
aI488380
aI414660
aI335350
aI488390
aI70600
aI512970
aI496590
aI406480
aI450040
aI439250
aI70616
aI383140
aI406490
aI498270
aI44360
aI373730
aI201700
aI357350
aI200188
aI324590
aI357360
aI507390
aI455670
aI398330
aI357380
aI373770
aI234510
aI250900
aI383150
aI283680
aI495110
aI496680
aI504880
aI320352
aI95300
aI450060
aI521290
aI31270
aI339470
aI431190
aI431191
aI204303
aI365660
aI208400
aI504930
aI328550
aI201830
aI320360
aI267774
aI406650
aI320362
aI349310
aI204309
aI341120
aI320363
aI21640
aI504970
aI390290
aI234650
aI341150
aI308420
aI431270
aI242860
aI402290
aI451443
aI488630
aI316600
aI320372
aI21690
aI292030
aI324800
aI390340
aI61520
aI251080
aI251081
aI464080
aI488660
aI234710
aI373980
aI415080
aI13540
aI496870
aI320381
aI319017
aI382200
aI431370
aI423180
aI65920
aI320387
aI226580
aI415000
aI365850
aI431390
aI406830
aI406840
aI286260
aI513340
aI46400
aI406850
aI480580
aI390470
aI423240
aI254860
aI46410
aI447820
aI480590
aI480593
aI480594
aI406870
aI398680
aI450670
aI496990
aI464230
aI456040
aI373650
aI497010
aI316790
aI447870
aI521600
aI298560
aI447880
aI439690
aI497040
aI423320
aI425540
aI497050
aI439710
aI226720
aI406950
aI390570
aI456110
aI273240
aI382390
aI46520
aI423361
aI423362
aI423363
aI423364
aI334070
aI439750
aI423367
aI423368
aI46540
aI410530
aI439770
aI259550
aI488930
aI112100
aI390630
aI370940
aI46570
aI407020
aI431600
aI447990
aI267770
aI267771
aI341500
aI267773
aI292350
aI325120
aI267778
aI300550
aI259591
aI259592
aI426924
aI267786
aI357900
aI218640
aI426926
aI431640
aI464410
aI407070
aI488991
aI464420
aI251430
aI456231
aI226860
aI464430
aI292400
aI485640
aI489010
aI456250
aI325180
aI321800
aI390720
aI451510
aI448070
aI390740
aI415320
aI439900
aI431710
aI257970
aI505440
aI439910
aI218740
aI409193
aI398970
aI464511
aI464512
aI464513
aI407830
aI464520
aI464521
aI464522
aI464523
aI464524
aI464525
aI292500
aI366230
aI259740
aI522844
aI382630
aI362780
aI366250
aI3700
aI407230
aI399040
aI513730
aI415431
aI366280
aI235210
aI382670
aI333520
aI291790
aI390870
aI235230
aI431840
aI488400
aI374500
aI284390
aI358120
aI513770
aI456430
aI489200
aI448260
aI104200
aI292620
aI423700
aI70617
aI227100
aI365530
aI423710
aI333600
aI407330
aI472870
aI341800
aI70620
aI38700
aI268080
aI492510
aI489780
aI390970
aI259900
aI279800
aI38720
aI317250
aI423760
aI415570
aI366420
aI470670
aI365540
aI464730
aI485690
aI235360
aI55140
aI366440
aI317290
aI235380
aI391040
aI305472
aI423810
aI497540
aI312300
aI456590
aI448400
aI63380
aI426990
aI489300
aI481180
aI463440
aI391070
aI423840
aI70640
aI63398
aI63399
aI391080
aI333740
aI426994
aI456630
aI513980
aI426997
aI489410
aI332790
aI497620
aI448470
aI427001
aI276440
aI464860
aI70650
aI415710
aI489450
aI346450
aI415730
aI210931
aI210932
aI210933
aI210934
aI350200
aI317440
aI514050
aI432470
aI333830
aI473100
aI376372
aI489490
aI235540
aI432150
aI70660
aI497690
aI473120
aI284710
aI317480
aI317490
aI374840
aI489530
aI358460
aI350270
aI350271
aI424000
aI399430
aI22600
aI497740
aI485730
aI284750
aI497750
aI391260
aI522333
aI522334
aI522335
aI497760
aI284770
aI235620
aI22630
aI22631
aI22632
aI22633
aI456810
aI489580
aI317550
aI514160
aI284790
aI514170
aI383100
aI289130
aI211070
aI448640
aI514180
aI301190
aI284810
aI235660
aI391310
aI465060
aI465070
aI284850
aI440500
aI497850
aI366780
aI391360
aI362870
aI284870
aI391370
aI383180
aI448720
aI481490
aI415960
aI284890
aI476490
aI375010
aI440550
aI497910
aI297000
aI391420
aI334080
aI407810
aI335190
aI448780
aI514320
aI448790
aI407940
aI350490
aI342300
aI276770
aI383270
aI47400
aI454550
aI394290
aI448820
aI399670
aI465210
aI293180
aI497990
aI413410
aI211280
aI344740
aI473430
aI375130
aI358750
aI342380
aI375160
aI235900
aI203140
aI372020
aI473480
aI347470
aI252310
aI203160
aI440730
aI375200
aI465320
aI448940
aI358830
aI468040
aI498110
aI367040
aI457120
aI31170
aI433910
aI334280
aI31180
aI31190
aI399831
aI473560
aI399833
aI399834
aI399836
aI31200
aI326120
aI31210
aI391660
aI457201
aI489974
aI40703
aI395690
aI489990
aI278460
aI416270
aI522770
aI522771
aI522772
aI522773
aI522774
aI522775
aI522776
aI522777
aI522778
aI522779
aI383520
aI498210
aI408100
aI408101
aI408102
aI522791
aI522792
aI522793
aI522794
aI522795
aI522796
aI522797
aI522798
aI522799
aI522800
aI522801
aI416310
aI522810
aI522811
aI522812
aI522813
aI522814
aI522815
aI522816
aI522817
aI522818
aI522819
aI522820
aI465480
aI498250
aI341090
aI481870
aI47700
aI274190
aI522840
aI522841
aI522842
aI522843
aI342620
aI522845
aI522846
aI522847
aI522849
aI522850
aI522851
aI490090
aI522860
aI522861
aI522862
aI522863
aI522864
aI522865
aI522866
aI522867
aI522868
aI522869
aI522870
aI522871
aI342650
aI244160
aI473730
aI514700
aI301710
aI211600
aI318100
aI15000
aI6810
aI252590
aI449200
aI309940
aI372510
aI6840
aI6850
aI6860
aI408270
aI6870
aI324730
aI6880
aI449250
aI309991
aI285420
aI383730
aI6900
aI6910
aI383750
aI211720
aI318220
aI15120
aI432600
aI47890
aI47898
aI238370
aI211740
aI326430
aI326431
aI418950
aI408360
aI393010
aI47920
aI359220
aI47930
aI310080
aI358880
aI15170
aI6980
aI490310
aI449360
aI359250
aI7000
aI403940
aI506720
aI416610
aI318310
aI433000
aI301930
aI7020
aI351090
aI465780
aI334710
aI408440
aI318330
aI424830
aI498560
aI499520
aI2540
aI429890
aI359310
aI526830
aI269210
aI203680
aI261030
aI490410
aI490411
aI490412
aI482222
aI482224
aI334770
aI334771
aI334772
aI402590
aI359350
aI228280
aI383930
aI334780
aI334781
aI334782
aI394400
aI7110
aI334791
aI334792
aI334793
aI277450
aI457680
aI277460
aI277470
aI434780
aI465890
aI498660
aI349350
aI400360
aI457710
aI277490
aI424950
aI291050
aI277500
aI384000
aI449540
aI277510
aI304300
aI15370
aI277520
aI269330
aI416790
aI236570
aI293920
aI277540
aI274270
aI203830
aI277560
aI400450
aI427190
aI233470
aI398520
aI457810
aI433240
aI433241
aI433242
aI457820
aI446310
aI482410
aI399890
aI457840
aI457841
aI457842
aI482420
aI312510
aI474230
aI327530
aI359550
aI509120
aI294020
aI449680
aI72850
aI457880
aI42180
aI408730
aI507040
aI466800
aI515240
aI326840
aI348020
aI12520
aI449730
aI400580
aI477730
aI446330
aI498910
aI449760
aI423120
aI384226
aI351460
aI522790
aI335080
aI305490
aI302320
aI105000
aI228600
aI228601
aI301610
aI351490
aI498950
aI498960
aI247000
aI384280
aI310560
aI31280
aI326950
aI427006
aI343360
aI335170
aI490820
aI498230
aI73030
aI73031
aI73033
aI343370
aI73035
aI73036
aI73037
aI73039
aI294230
aI236890
aI433500
aI31290
aI343390
aI335200
aI458640
aI73058
aI388420
aI391740
aI40300
aI1256
aI335220
aI416320
aI359810
aI331670
aI376200
aI73097
aI73098
aI343440
aI204180
aI318870
aI318871
aI318872
aI302490
aI73115
aI499100
aI73119
aI499110
aI466350
aI499120
aI301640
aI503710
aI466360
aI499130
aI490940
aI368061
aI425410
aI294340
aI40390
aI40391
aI40392
aI40393
aI417230
aI450000
aI450001
aI522830
aI499160
aI269790
aI425440
aI490980
aI208806
aI441830
aI351720
aI520103
aI520104
aI515570
aI507380
aI7670
aI520105
aI491000
aI498260
aI520106
aI466430
aI499200
aI450050
aI520107
aI261640
aI520108
aI204300
aI208813
aI228880
aI204305
aI204306
aI204307
aI204308
aI208814
aI204310
aI204311
aI204312
aI204314
aI204315
aI220700
aI204317
aI204318
aI204319
aI450080
aI478990
aI319011
aI319014
aI319015
aI319016
aI383580
aI319018
aI523820
aI523821
aI433710
aI376370
aI376371
aI327220
aI376373
aI65080
aI368190
aI523840
aI310850
aI220740
aI425542
aI425544
aI220760
aI222480
aI409190
aI409191
aI409192
aI360380
aI409194
aI220780
aI409200
aI409201
aI409202
aI409203
aI409204
aI451442
aI474750
aI220801
aI220802
aI220803
aI220804
aI220805
aI220806
aI220807
aI220809
aI384650
aI220811
aI220812
aI220813
aI409240
aI409241
aI360090
aI499360
aI409250
aI409251
aI409252
aI409253
aI409254
aI409255
aI409256
aI409257
aI482990
aI433840
aI360114
aI360115
aI253650
aI286670
aI204304
aI515800
aI458470
aI458480
aI329000
aI245490
aI524020
aI270070
aI528340
aI40700
aI528341
aI352000
aI461440
aI520150
aI230700
aI352010
aI261900
aI371330
aI40720
aI466710
aI491300
aI401190
aI499500
aI491310
aI474930
aI8000
aI417610
aI491340
aI430050
aI417620
aI327510
aI466780
aI417630
aI327520
aI6800
aI466790
aI417640
aI286570
aI221040
aI323560
aI368500
aI320830
aI343930
aI376700
aI466820
aI371350
aI327560
aI528364
aI8080
aI35480
aI466840
aI232090
aI450470
aI466870
aI409530
aI204731
aI204732
aI435530
aI204734
aI450500
aI262142
aI466890
aI8140
aI368590
aI286671
aI311250
aI316750
aI409560
aI352220
aI450530
aI483300
aI221160
aI221161
aI221162
aI221164
aI221165
aI221166
aI221167
aI221168
aI458740
aI8190
aI491510
aI516090
aI262141
aI458750
atRp3
.